
kernel/kernel:     file format elf64-littleriscv


Disassembly of section .text:

0000000080000000 <_entry>:
_entry:
        # set up a stack for C.
        # stack0 is declared in start.c,
        # with a 4096-byte stack per CPU.
        # sp = stack0 + ((hartid + 1) * 4096)
        la sp, stack0
    80000000:	0000d117          	auipc	sp,0xd
    80000004:	3d010113          	addi	sp,sp,976 # 8000d3d0 <stack0>
        li a0, 1024*4
    80000008:	6505                	lui	a0,0x1
        csrr a1, mhartid
    8000000a:	f14025f3          	csrr	a1,mhartid
        addi a1, a1, 1
    8000000e:	0585                	addi	a1,a1,1
        mul a0, a0, a1
    80000010:	02b50533          	mul	a0,a0,a1
        add sp, sp, a0
    80000014:	912a                	add	sp,sp,a0
        # jump to start() in start.c
        call start
    80000016:	04e000ef          	jal	80000064 <start>

000000008000001a <spin>:
spin:
        j spin
    8000001a:	a001                	j	8000001a <spin>

000000008000001c <timerinit>:
}

// ask each hart to generate timer interrupts.
void
timerinit()
{
    8000001c:	1141                	addi	sp,sp,-16
    8000001e:	e406                	sd	ra,8(sp)
    80000020:	e022                	sd	s0,0(sp)
    80000022:	0800                	addi	s0,sp,16
#define MIE_STIE (1L << 5)  // supervisor timer
static inline uint64
r_mie()
{
  uint64 x;
  asm volatile("csrr %0, mie" : "=r" (x) );
    80000024:	304027f3          	csrr	a5,mie
  // enable supervisor-mode timer interrupts.
  w_mie(r_mie() | MIE_STIE);
    80000028:	0207e793          	ori	a5,a5,32
}

static inline void 
w_mie(uint64 x)
{
  asm volatile("csrw mie, %0" : : "r" (x));
    8000002c:	30479073          	csrw	mie,a5
static inline uint64
r_menvcfg()
{
  uint64 x;
  // asm volatile("csrr %0, menvcfg" : "=r" (x) );
  asm volatile("csrr %0, 0x30a" : "=r" (x) );
    80000030:	30a027f3          	csrr	a5,0x30a
  
  // enable the sstc extension (i.e. stimecmp).
  w_menvcfg(r_menvcfg() | (1L << 63)); 
    80000034:	577d                	li	a4,-1
    80000036:	177e                	slli	a4,a4,0x3f
    80000038:	8fd9                	or	a5,a5,a4

static inline void 
w_menvcfg(uint64 x)
{
  // asm volatile("csrw menvcfg, %0" : : "r" (x));
  asm volatile("csrw 0x30a, %0" : : "r" (x));
    8000003a:	30a79073          	csrw	0x30a,a5

static inline uint64
r_mcounteren()
{
  uint64 x;
  asm volatile("csrr %0, mcounteren" : "=r" (x) );
    8000003e:	306027f3          	csrr	a5,mcounteren
  
  // allow supervisor to use stimecmp and time.
  w_mcounteren(r_mcounteren() | 2);
    80000042:	0027e793          	ori	a5,a5,2
  asm volatile("csrw mcounteren, %0" : : "r" (x));
    80000046:	30679073          	csrw	mcounteren,a5
// machine-mode cycle counter
static inline uint64
r_time()
{
  uint64 x;
  asm volatile("csrr %0, time" : "=r" (x) );
    8000004a:	c01027f3          	rdtime	a5
  
  // ask for the very first timer interrupt.
  w_stimecmp(r_time() + 1000000);
    8000004e:	000f4737          	lui	a4,0xf4
    80000052:	24070713          	addi	a4,a4,576 # f4240 <_entry-0x7ff0bdc0>
    80000056:	97ba                	add	a5,a5,a4
  asm volatile("csrw 0x14d, %0" : : "r" (x));
    80000058:	14d79073          	csrw	stimecmp,a5
}
    8000005c:	60a2                	ld	ra,8(sp)
    8000005e:	6402                	ld	s0,0(sp)
    80000060:	0141                	addi	sp,sp,16
    80000062:	8082                	ret

0000000080000064 <start>:
{
    80000064:	1141                	addi	sp,sp,-16
    80000066:	e406                	sd	ra,8(sp)
    80000068:	e022                	sd	s0,0(sp)
    8000006a:	0800                	addi	s0,sp,16
  asm volatile("csrr %0, mstatus" : "=r" (x) );
    8000006c:	300027f3          	csrr	a5,mstatus
  x &= ~MSTATUS_MPP_MASK;
    80000070:	7779                	lui	a4,0xffffe
    80000072:	7ff70713          	addi	a4,a4,2047 # ffffffffffffe7ff <end+0xffffffff7fd2ad27>
    80000076:	8ff9                	and	a5,a5,a4
  x |= MSTATUS_MPP_S;
    80000078:	6705                	lui	a4,0x1
    8000007a:	80070713          	addi	a4,a4,-2048 # 800 <_entry-0x7ffff800>
    8000007e:	8fd9                	or	a5,a5,a4
  asm volatile("csrw mstatus, %0" : : "r" (x));
    80000080:	30079073          	csrw	mstatus,a5
  asm volatile("csrw mepc, %0" : : "r" (x));
    80000084:	00001797          	auipc	a5,0x1
    80000088:	e2e78793          	addi	a5,a5,-466 # 80000eb2 <main>
    8000008c:	34179073          	csrw	mepc,a5
  asm volatile("csrw satp, %0" : : "r" (x));
    80000090:	4781                	li	a5,0
    80000092:	18079073          	csrw	satp,a5
  asm volatile("csrw medeleg, %0" : : "r" (x));
    80000096:	67c1                	lui	a5,0x10
    80000098:	17fd                	addi	a5,a5,-1 # ffff <_entry-0x7fff0001>
    8000009a:	30279073          	csrw	medeleg,a5
  asm volatile("csrw mideleg, %0" : : "r" (x));
    8000009e:	30379073          	csrw	mideleg,a5
  asm volatile("csrr %0, sie" : "=r" (x) );
    800000a2:	104027f3          	csrr	a5,sie
  w_sie(r_sie() | SIE_SEIE | SIE_STIE);
    800000a6:	2207e793          	ori	a5,a5,544
  asm volatile("csrw sie, %0" : : "r" (x));
    800000aa:	10479073          	csrw	sie,a5
  asm volatile("csrw pmpaddr0, %0" : : "r" (x));
    800000ae:	57fd                	li	a5,-1
    800000b0:	83a9                	srli	a5,a5,0xa
    800000b2:	3b079073          	csrw	pmpaddr0,a5
  asm volatile("csrw pmpcfg0, %0" : : "r" (x));
    800000b6:	47bd                	li	a5,15
    800000b8:	3a079073          	csrw	pmpcfg0,a5
  timerinit();
    800000bc:	f61ff0ef          	jal	8000001c <timerinit>
  asm volatile("csrr %0, mhartid" : "=r" (x) );
    800000c0:	f14027f3          	csrr	a5,mhartid
  w_tp(id);
    800000c4:	2781                	sext.w	a5,a5
}

static inline void 
w_tp(uint64 x)
{
  asm volatile("mv tp, %0" : : "r" (x));
    800000c6:	823e                	mv	tp,a5
  asm volatile("mret");
    800000c8:	30200073          	mret
}
    800000cc:	60a2                	ld	ra,8(sp)
    800000ce:	6402                	ld	s0,0(sp)
    800000d0:	0141                	addi	sp,sp,16
    800000d2:	8082                	ret

00000000800000d4 <consolewrite>:
//
// user write()s to the console go here.
//
int
consolewrite(int user_src, uint64 src, int n)
{
    800000d4:	7119                	addi	sp,sp,-128
    800000d6:	fc86                	sd	ra,120(sp)
    800000d8:	f8a2                	sd	s0,112(sp)
    800000da:	f4a6                	sd	s1,104(sp)
    800000dc:	0100                	addi	s0,sp,128
  char buf[32];
  int i = 0;

  while(i < n){
    800000de:	06c05b63          	blez	a2,80000154 <consolewrite+0x80>
    800000e2:	f0ca                	sd	s2,96(sp)
    800000e4:	ecce                	sd	s3,88(sp)
    800000e6:	e8d2                	sd	s4,80(sp)
    800000e8:	e4d6                	sd	s5,72(sp)
    800000ea:	e0da                	sd	s6,64(sp)
    800000ec:	fc5e                	sd	s7,56(sp)
    800000ee:	f862                	sd	s8,48(sp)
    800000f0:	f466                	sd	s9,40(sp)
    800000f2:	f06a                	sd	s10,32(sp)
    800000f4:	8b2a                	mv	s6,a0
    800000f6:	8bae                	mv	s7,a1
    800000f8:	8a32                	mv	s4,a2
  int i = 0;
    800000fa:	4481                	li	s1,0
    int nn = sizeof(buf);
    if(nn > n - i)
    800000fc:	02000c93          	li	s9,32
    80000100:	02000d13          	li	s10,32
      nn = n - i;
    if(either_copyin(buf, user_src, src+i, nn) == -1)
    80000104:	f8040a93          	addi	s5,s0,-128
    80000108:	5c7d                	li	s8,-1
    8000010a:	a025                	j	80000132 <consolewrite+0x5e>
    if(nn > n - i)
    8000010c:	0009099b          	sext.w	s3,s2
    if(either_copyin(buf, user_src, src+i, nn) == -1)
    80000110:	86ce                	mv	a3,s3
    80000112:	01748633          	add	a2,s1,s7
    80000116:	85da                	mv	a1,s6
    80000118:	8556                	mv	a0,s5
    8000011a:	0df030ef          	jal	800039f8 <either_copyin>
    8000011e:	03850d63          	beq	a0,s8,80000158 <consolewrite+0x84>
      break;
    uartwrite(buf, nn);
    80000122:	85ce                	mv	a1,s3
    80000124:	8556                	mv	a0,s5
    80000126:	7b4000ef          	jal	800008da <uartwrite>
    i += nn;
    8000012a:	009904bb          	addw	s1,s2,s1
  while(i < n){
    8000012e:	0144d963          	bge	s1,s4,80000140 <consolewrite+0x6c>
    if(nn > n - i)
    80000132:	409a07bb          	subw	a5,s4,s1
    80000136:	893e                	mv	s2,a5
    80000138:	fcfcdae3          	bge	s9,a5,8000010c <consolewrite+0x38>
    8000013c:	896a                	mv	s2,s10
    8000013e:	b7f9                	j	8000010c <consolewrite+0x38>
    80000140:	7906                	ld	s2,96(sp)
    80000142:	69e6                	ld	s3,88(sp)
    80000144:	6a46                	ld	s4,80(sp)
    80000146:	6aa6                	ld	s5,72(sp)
    80000148:	6b06                	ld	s6,64(sp)
    8000014a:	7be2                	ld	s7,56(sp)
    8000014c:	7c42                	ld	s8,48(sp)
    8000014e:	7ca2                	ld	s9,40(sp)
    80000150:	7d02                	ld	s10,32(sp)
    80000152:	a821                	j	8000016a <consolewrite+0x96>
  int i = 0;
    80000154:	4481                	li	s1,0
    80000156:	a811                	j	8000016a <consolewrite+0x96>
    80000158:	7906                	ld	s2,96(sp)
    8000015a:	69e6                	ld	s3,88(sp)
    8000015c:	6a46                	ld	s4,80(sp)
    8000015e:	6aa6                	ld	s5,72(sp)
    80000160:	6b06                	ld	s6,64(sp)
    80000162:	7be2                	ld	s7,56(sp)
    80000164:	7c42                	ld	s8,48(sp)
    80000166:	7ca2                	ld	s9,40(sp)
    80000168:	7d02                	ld	s10,32(sp)
  }

  return i;
}
    8000016a:	8526                	mv	a0,s1
    8000016c:	70e6                	ld	ra,120(sp)
    8000016e:	7446                	ld	s0,112(sp)
    80000170:	74a6                	ld	s1,104(sp)
    80000172:	6109                	addi	sp,sp,128
    80000174:	8082                	ret

0000000080000176 <consoleread>:
// user_dist indicates whether dst is a user
// or kernel address.
//
int
consoleread(int user_dst, uint64 dst, int n)
{
    80000176:	711d                	addi	sp,sp,-96
    80000178:	ec86                	sd	ra,88(sp)
    8000017a:	e8a2                	sd	s0,80(sp)
    8000017c:	e4a6                	sd	s1,72(sp)
    8000017e:	e0ca                	sd	s2,64(sp)
    80000180:	fc4e                	sd	s3,56(sp)
    80000182:	f852                	sd	s4,48(sp)
    80000184:	f05a                	sd	s6,32(sp)
    80000186:	ec5e                	sd	s7,24(sp)
    80000188:	1080                	addi	s0,sp,96
    8000018a:	8b2a                	mv	s6,a0
    8000018c:	8a2e                	mv	s4,a1
    8000018e:	89b2                	mv	s3,a2
  uint target;
  int c;
  char cbuf;

  target = n;
    80000190:	8bb2                	mv	s7,a2
  acquire(&cons.lock);
    80000192:	00015517          	auipc	a0,0x15
    80000196:	23e50513          	addi	a0,a0,574 # 800153d0 <cons>
    8000019a:	293000ef          	jal	80000c2c <acquire>
  while(n > 0){
    // wait until interrupt handler has put some
    // input into cons.buffer.
    while(cons.r == cons.w){
    8000019e:	00015497          	auipc	s1,0x15
    800001a2:	23248493          	addi	s1,s1,562 # 800153d0 <cons>
      if(killed(myproc())){
        release(&cons.lock);
        return -1;
      }
      sleep(&cons.r, &cons.lock);
    800001a6:	00015917          	auipc	s2,0x15
    800001aa:	2c290913          	addi	s2,s2,706 # 80015468 <cons+0x98>
  while(n > 0){
    800001ae:	0b305b63          	blez	s3,80000264 <consoleread+0xee>
    while(cons.r == cons.w){
    800001b2:	0984a783          	lw	a5,152(s1)
    800001b6:	09c4a703          	lw	a4,156(s1)
    800001ba:	0af71063          	bne	a4,a5,8000025a <consoleread+0xe4>
      if(killed(myproc())){
    800001be:	487020ef          	jal	80002e44 <myproc>
    800001c2:	6cc030ef          	jal	8000388e <killed>
    800001c6:	e12d                	bnez	a0,80000228 <consoleread+0xb2>
      sleep(&cons.r, &cons.lock);
    800001c8:	85a6                	mv	a1,s1
    800001ca:	854a                	mv	a0,s2
    800001cc:	46a030ef          	jal	80003636 <sleep>
    while(cons.r == cons.w){
    800001d0:	0984a783          	lw	a5,152(s1)
    800001d4:	09c4a703          	lw	a4,156(s1)
    800001d8:	fef703e3          	beq	a4,a5,800001be <consoleread+0x48>
    800001dc:	f456                	sd	s5,40(sp)
    }

    c = cons.buf[cons.r++ % INPUT_BUF_SIZE];
    800001de:	00015717          	auipc	a4,0x15
    800001e2:	1f270713          	addi	a4,a4,498 # 800153d0 <cons>
    800001e6:	0017869b          	addiw	a3,a5,1
    800001ea:	08d72c23          	sw	a3,152(a4)
    800001ee:	07f7f693          	andi	a3,a5,127
    800001f2:	9736                	add	a4,a4,a3
    800001f4:	01874703          	lbu	a4,24(a4)
    800001f8:	00070a9b          	sext.w	s5,a4

    if(c == C('D')){  // end-of-file
    800001fc:	4691                	li	a3,4
    800001fe:	04da8663          	beq	s5,a3,8000024a <consoleread+0xd4>
      }
      break;
    }

    // copy the input byte to the user-space buffer.
    cbuf = c;
    80000202:	fae407a3          	sb	a4,-81(s0)
    if(either_copyout(user_dst, dst, &cbuf, 1) == -1)
    80000206:	4685                	li	a3,1
    80000208:	faf40613          	addi	a2,s0,-81
    8000020c:	85d2                	mv	a1,s4
    8000020e:	855a                	mv	a0,s6
    80000210:	79e030ef          	jal	800039ae <either_copyout>
    80000214:	57fd                	li	a5,-1
    80000216:	04f50663          	beq	a0,a5,80000262 <consoleread+0xec>
      break;

    dst++;
    8000021a:	0a05                	addi	s4,s4,1
    --n;
    8000021c:	39fd                	addiw	s3,s3,-1

    if(c == '\n'){
    8000021e:	47a9                	li	a5,10
    80000220:	04fa8b63          	beq	s5,a5,80000276 <consoleread+0x100>
    80000224:	7aa2                	ld	s5,40(sp)
    80000226:	b761                	j	800001ae <consoleread+0x38>
        release(&cons.lock);
    80000228:	00015517          	auipc	a0,0x15
    8000022c:	1a850513          	addi	a0,a0,424 # 800153d0 <cons>
    80000230:	291000ef          	jal	80000cc0 <release>
        return -1;
    80000234:	557d                	li	a0,-1
    }
  }
  release(&cons.lock);

  return target - n;
}
    80000236:	60e6                	ld	ra,88(sp)
    80000238:	6446                	ld	s0,80(sp)
    8000023a:	64a6                	ld	s1,72(sp)
    8000023c:	6906                	ld	s2,64(sp)
    8000023e:	79e2                	ld	s3,56(sp)
    80000240:	7a42                	ld	s4,48(sp)
    80000242:	7b02                	ld	s6,32(sp)
    80000244:	6be2                	ld	s7,24(sp)
    80000246:	6125                	addi	sp,sp,96
    80000248:	8082                	ret
      if(n < target){
    8000024a:	0179fa63          	bgeu	s3,s7,8000025e <consoleread+0xe8>
        cons.r--;
    8000024e:	00015717          	auipc	a4,0x15
    80000252:	20f72d23          	sw	a5,538(a4) # 80015468 <cons+0x98>
    80000256:	7aa2                	ld	s5,40(sp)
    80000258:	a031                	j	80000264 <consoleread+0xee>
    8000025a:	f456                	sd	s5,40(sp)
    8000025c:	b749                	j	800001de <consoleread+0x68>
    8000025e:	7aa2                	ld	s5,40(sp)
    80000260:	a011                	j	80000264 <consoleread+0xee>
    80000262:	7aa2                	ld	s5,40(sp)
  release(&cons.lock);
    80000264:	00015517          	auipc	a0,0x15
    80000268:	16c50513          	addi	a0,a0,364 # 800153d0 <cons>
    8000026c:	255000ef          	jal	80000cc0 <release>
  return target - n;
    80000270:	413b853b          	subw	a0,s7,s3
    80000274:	b7c9                	j	80000236 <consoleread+0xc0>
    80000276:	7aa2                	ld	s5,40(sp)
    80000278:	b7f5                	j	80000264 <consoleread+0xee>

000000008000027a <consputc>:
{
    8000027a:	1141                	addi	sp,sp,-16
    8000027c:	e406                	sd	ra,8(sp)
    8000027e:	e022                	sd	s0,0(sp)
    80000280:	0800                	addi	s0,sp,16
  if(c == BACKSPACE){
    80000282:	10000793          	li	a5,256
    80000286:	00f50863          	beq	a0,a5,80000296 <consputc+0x1c>
    uartputc_sync(c);
    8000028a:	6e4000ef          	jal	8000096e <uartputc_sync>
}
    8000028e:	60a2                	ld	ra,8(sp)
    80000290:	6402                	ld	s0,0(sp)
    80000292:	0141                	addi	sp,sp,16
    80000294:	8082                	ret
    uartputc_sync('\b'); uartputc_sync(' '); uartputc_sync('\b');
    80000296:	4521                	li	a0,8
    80000298:	6d6000ef          	jal	8000096e <uartputc_sync>
    8000029c:	02000513          	li	a0,32
    800002a0:	6ce000ef          	jal	8000096e <uartputc_sync>
    800002a4:	4521                	li	a0,8
    800002a6:	6c8000ef          	jal	8000096e <uartputc_sync>
    800002aa:	b7d5                	j	8000028e <consputc+0x14>

00000000800002ac <consoleintr>:
// do erase/kill processing, append to cons.buf,
// wake up consoleread() if a whole line has arrived.
//
void
consoleintr(int c)
{
    800002ac:	1101                	addi	sp,sp,-32
    800002ae:	ec06                	sd	ra,24(sp)
    800002b0:	e822                	sd	s0,16(sp)
    800002b2:	e426                	sd	s1,8(sp)
    800002b4:	1000                	addi	s0,sp,32
    800002b6:	84aa                	mv	s1,a0
  acquire(&cons.lock);
    800002b8:	00015517          	auipc	a0,0x15
    800002bc:	11850513          	addi	a0,a0,280 # 800153d0 <cons>
    800002c0:	16d000ef          	jal	80000c2c <acquire>

  switch(c){
    800002c4:	47d5                	li	a5,21
    800002c6:	08f48d63          	beq	s1,a5,80000360 <consoleintr+0xb4>
    800002ca:	0297c563          	blt	a5,s1,800002f4 <consoleintr+0x48>
    800002ce:	47a1                	li	a5,8
    800002d0:	0ef48263          	beq	s1,a5,800003b4 <consoleintr+0x108>
    800002d4:	47c1                	li	a5,16
    800002d6:	10f49363          	bne	s1,a5,800003dc <consoleintr+0x130>
  case C('P'):  // Print process list.
    procdump();
    800002da:	768030ef          	jal	80003a42 <procdump>
      }
    }
    break;
  }
  
  release(&cons.lock);
    800002de:	00015517          	auipc	a0,0x15
    800002e2:	0f250513          	addi	a0,a0,242 # 800153d0 <cons>
    800002e6:	1db000ef          	jal	80000cc0 <release>
}
    800002ea:	60e2                	ld	ra,24(sp)
    800002ec:	6442                	ld	s0,16(sp)
    800002ee:	64a2                	ld	s1,8(sp)
    800002f0:	6105                	addi	sp,sp,32
    800002f2:	8082                	ret
  switch(c){
    800002f4:	07f00793          	li	a5,127
    800002f8:	0af48e63          	beq	s1,a5,800003b4 <consoleintr+0x108>
    if(c != 0 && cons.e-cons.r < INPUT_BUF_SIZE){
    800002fc:	00015717          	auipc	a4,0x15
    80000300:	0d470713          	addi	a4,a4,212 # 800153d0 <cons>
    80000304:	0a072783          	lw	a5,160(a4)
    80000308:	09872703          	lw	a4,152(a4)
    8000030c:	9f99                	subw	a5,a5,a4
    8000030e:	07f00713          	li	a4,127
    80000312:	fcf766e3          	bltu	a4,a5,800002de <consoleintr+0x32>
      c = (c == '\r') ? '\n' : c;
    80000316:	47b5                	li	a5,13
    80000318:	0cf48563          	beq	s1,a5,800003e2 <consoleintr+0x136>
      consputc(c);
    8000031c:	8526                	mv	a0,s1
    8000031e:	f5dff0ef          	jal	8000027a <consputc>
      cons.buf[cons.e++ % INPUT_BUF_SIZE] = c;
    80000322:	00015717          	auipc	a4,0x15
    80000326:	0ae70713          	addi	a4,a4,174 # 800153d0 <cons>
    8000032a:	0a072683          	lw	a3,160(a4)
    8000032e:	0016879b          	addiw	a5,a3,1
    80000332:	863e                	mv	a2,a5
    80000334:	0af72023          	sw	a5,160(a4)
    80000338:	07f6f693          	andi	a3,a3,127
    8000033c:	9736                	add	a4,a4,a3
    8000033e:	00970c23          	sb	s1,24(a4)
      if(c == '\n' || c == C('D') || cons.e-cons.r == INPUT_BUF_SIZE){
    80000342:	ff648713          	addi	a4,s1,-10
    80000346:	c371                	beqz	a4,8000040a <consoleintr+0x15e>
    80000348:	14f1                	addi	s1,s1,-4
    8000034a:	c0e1                	beqz	s1,8000040a <consoleintr+0x15e>
    8000034c:	00015717          	auipc	a4,0x15
    80000350:	11c72703          	lw	a4,284(a4) # 80015468 <cons+0x98>
    80000354:	9f99                	subw	a5,a5,a4
    80000356:	08000713          	li	a4,128
    8000035a:	f8e792e3          	bne	a5,a4,800002de <consoleintr+0x32>
    8000035e:	a075                	j	8000040a <consoleintr+0x15e>
    80000360:	e04a                	sd	s2,0(sp)
    while(cons.e != cons.w &&
    80000362:	00015717          	auipc	a4,0x15
    80000366:	06e70713          	addi	a4,a4,110 # 800153d0 <cons>
    8000036a:	0a072783          	lw	a5,160(a4)
    8000036e:	09c72703          	lw	a4,156(a4)
          cons.buf[(cons.e-1) % INPUT_BUF_SIZE] != '\n'){
    80000372:	00015497          	auipc	s1,0x15
    80000376:	05e48493          	addi	s1,s1,94 # 800153d0 <cons>
    while(cons.e != cons.w &&
    8000037a:	4929                	li	s2,10
    8000037c:	02f70863          	beq	a4,a5,800003ac <consoleintr+0x100>
          cons.buf[(cons.e-1) % INPUT_BUF_SIZE] != '\n'){
    80000380:	37fd                	addiw	a5,a5,-1
    80000382:	07f7f713          	andi	a4,a5,127
    80000386:	9726                	add	a4,a4,s1
    while(cons.e != cons.w &&
    80000388:	01874703          	lbu	a4,24(a4)
    8000038c:	03270263          	beq	a4,s2,800003b0 <consoleintr+0x104>
      cons.e--;
    80000390:	0af4a023          	sw	a5,160(s1)
      consputc(BACKSPACE);
    80000394:	10000513          	li	a0,256
    80000398:	ee3ff0ef          	jal	8000027a <consputc>
    while(cons.e != cons.w &&
    8000039c:	0a04a783          	lw	a5,160(s1)
    800003a0:	09c4a703          	lw	a4,156(s1)
    800003a4:	fcf71ee3          	bne	a4,a5,80000380 <consoleintr+0xd4>
    800003a8:	6902                	ld	s2,0(sp)
    800003aa:	bf15                	j	800002de <consoleintr+0x32>
    800003ac:	6902                	ld	s2,0(sp)
    800003ae:	bf05                	j	800002de <consoleintr+0x32>
    800003b0:	6902                	ld	s2,0(sp)
    800003b2:	b735                	j	800002de <consoleintr+0x32>
    if(cons.e != cons.w){
    800003b4:	00015717          	auipc	a4,0x15
    800003b8:	01c70713          	addi	a4,a4,28 # 800153d0 <cons>
    800003bc:	0a072783          	lw	a5,160(a4)
    800003c0:	09c72703          	lw	a4,156(a4)
    800003c4:	f0f70de3          	beq	a4,a5,800002de <consoleintr+0x32>
      cons.e--;
    800003c8:	37fd                	addiw	a5,a5,-1
    800003ca:	00015717          	auipc	a4,0x15
    800003ce:	0af72323          	sw	a5,166(a4) # 80015470 <cons+0xa0>
      consputc(BACKSPACE);
    800003d2:	10000513          	li	a0,256
    800003d6:	ea5ff0ef          	jal	8000027a <consputc>
    800003da:	b711                	j	800002de <consoleintr+0x32>
    if(c != 0 && cons.e-cons.r < INPUT_BUF_SIZE){
    800003dc:	f00481e3          	beqz	s1,800002de <consoleintr+0x32>
    800003e0:	bf31                	j	800002fc <consoleintr+0x50>
      consputc(c);
    800003e2:	4529                	li	a0,10
    800003e4:	e97ff0ef          	jal	8000027a <consputc>
      cons.buf[cons.e++ % INPUT_BUF_SIZE] = c;
    800003e8:	00015797          	auipc	a5,0x15
    800003ec:	fe878793          	addi	a5,a5,-24 # 800153d0 <cons>
    800003f0:	0a07a703          	lw	a4,160(a5)
    800003f4:	0017069b          	addiw	a3,a4,1
    800003f8:	8636                	mv	a2,a3
    800003fa:	0ad7a023          	sw	a3,160(a5)
    800003fe:	07f77713          	andi	a4,a4,127
    80000402:	97ba                	add	a5,a5,a4
    80000404:	4729                	li	a4,10
    80000406:	00e78c23          	sb	a4,24(a5)
        cons.w = cons.e;
    8000040a:	00015797          	auipc	a5,0x15
    8000040e:	06c7a123          	sw	a2,98(a5) # 8001546c <cons+0x9c>
        wakeup(&cons.r);
    80000412:	00015517          	auipc	a0,0x15
    80000416:	05650513          	addi	a0,a0,86 # 80015468 <cons+0x98>
    8000041a:	268030ef          	jal	80003682 <wakeup>
    8000041e:	b5c1                	j	800002de <consoleintr+0x32>

0000000080000420 <consoleinit>:

void
consoleinit(void)
{
    80000420:	1141                	addi	sp,sp,-16
    80000422:	e406                	sd	ra,8(sp)
    80000424:	e022                	sd	s0,0(sp)
    80000426:	0800                	addi	s0,sp,16
  initlock(&cons.lock, "cons");
    80000428:	00009597          	auipc	a1,0x9
    8000042c:	bd858593          	addi	a1,a1,-1064 # 80009000 <etext>
    80000430:	00015517          	auipc	a0,0x15
    80000434:	fa050513          	addi	a0,a0,-96 # 800153d0 <cons>
    80000438:	76a000ef          	jal	80000ba2 <initlock>

  uartinit();
    8000043c:	448000ef          	jal	80000884 <uartinit>

  // connect read and write system calls
  // to consoleread and consolewrite.
  devsw[CONSOLE].read = consoleread;
    80000440:	002d2797          	auipc	a5,0x2d2
    80000444:	50078793          	addi	a5,a5,1280 # 802d2940 <devsw>
    80000448:	00000717          	auipc	a4,0x0
    8000044c:	d2e70713          	addi	a4,a4,-722 # 80000176 <consoleread>
    80000450:	eb98                	sd	a4,16(a5)
  devsw[CONSOLE].write = consolewrite;
    80000452:	00000717          	auipc	a4,0x0
    80000456:	c8270713          	addi	a4,a4,-894 # 800000d4 <consolewrite>
    8000045a:	ef98                	sd	a4,24(a5)
}
    8000045c:	60a2                	ld	ra,8(sp)
    8000045e:	6402                	ld	s0,0(sp)
    80000460:	0141                	addi	sp,sp,16
    80000462:	8082                	ret

0000000080000464 <printint>:

static char digits[] = "0123456789abcdef";

static void
printint(long long xx, int base, int sign)
{
    80000464:	7139                	addi	sp,sp,-64
    80000466:	fc06                	sd	ra,56(sp)
    80000468:	f822                	sd	s0,48(sp)
    8000046a:	f04a                	sd	s2,32(sp)
    8000046c:	0080                	addi	s0,sp,64
  char buf[20];
  int i;
  unsigned long long x;

  if(sign && (sign = (xx < 0)))
    8000046e:	c219                	beqz	a2,80000474 <printint+0x10>
    80000470:	08054163          	bltz	a0,800004f2 <printint+0x8e>
    x = -xx;
  else
    x = xx;
    80000474:	4301                	li	t1,0

  i = 0;
    80000476:	fc840913          	addi	s2,s0,-56
    x = xx;
    8000047a:	86ca                	mv	a3,s2
  i = 0;
    8000047c:	4701                	li	a4,0
  do {
    buf[i++] = digits[x % base];
    8000047e:	0000a817          	auipc	a6,0xa
    80000482:	dd280813          	addi	a6,a6,-558 # 8000a250 <digits>
    80000486:	88ba                	mv	a7,a4
    80000488:	0017061b          	addiw	a2,a4,1
    8000048c:	8732                	mv	a4,a2
    8000048e:	02b577b3          	remu	a5,a0,a1
    80000492:	97c2                	add	a5,a5,a6
    80000494:	0007c783          	lbu	a5,0(a5)
    80000498:	00f68023          	sb	a5,0(a3)
  } while((x /= base) != 0);
    8000049c:	87aa                	mv	a5,a0
    8000049e:	02b55533          	divu	a0,a0,a1
    800004a2:	0685                	addi	a3,a3,1
    800004a4:	feb7f1e3          	bgeu	a5,a1,80000486 <printint+0x22>

  if(sign)
    800004a8:	00030c63          	beqz	t1,800004c0 <printint+0x5c>
    buf[i++] = '-';
    800004ac:	fe060793          	addi	a5,a2,-32
    800004b0:	00878633          	add	a2,a5,s0
    800004b4:	02d00793          	li	a5,45
    800004b8:	fef60423          	sb	a5,-24(a2)
    800004bc:	0028871b          	addiw	a4,a7,2

  while(--i >= 0)
    800004c0:	02e05463          	blez	a4,800004e8 <printint+0x84>
    800004c4:	f426                	sd	s1,40(sp)
    800004c6:	377d                	addiw	a4,a4,-1
    800004c8:	00e904b3          	add	s1,s2,a4
    800004cc:	197d                	addi	s2,s2,-1
    800004ce:	993a                	add	s2,s2,a4
    800004d0:	1702                	slli	a4,a4,0x20
    800004d2:	9301                	srli	a4,a4,0x20
    800004d4:	40e90933          	sub	s2,s2,a4
    consputc(buf[i]);
    800004d8:	0004c503          	lbu	a0,0(s1)
    800004dc:	d9fff0ef          	jal	8000027a <consputc>
  while(--i >= 0)
    800004e0:	14fd                	addi	s1,s1,-1
    800004e2:	ff249be3          	bne	s1,s2,800004d8 <printint+0x74>
    800004e6:	74a2                	ld	s1,40(sp)
}
    800004e8:	70e2                	ld	ra,56(sp)
    800004ea:	7442                	ld	s0,48(sp)
    800004ec:	7902                	ld	s2,32(sp)
    800004ee:	6121                	addi	sp,sp,64
    800004f0:	8082                	ret
    x = -xx;
    800004f2:	40a00533          	neg	a0,a0
  if(sign && (sign = (xx < 0)))
    800004f6:	4305                	li	t1,1
    x = -xx;
    800004f8:	bfbd                	j	80000476 <printint+0x12>

00000000800004fa <printf>:
}

// Print to the console.
int
printf(char *fmt, ...)
{
    800004fa:	7131                	addi	sp,sp,-192
    800004fc:	fc86                	sd	ra,120(sp)
    800004fe:	f8a2                	sd	s0,112(sp)
    80000500:	f0ca                	sd	s2,96(sp)
    80000502:	0100                	addi	s0,sp,128
    80000504:	892a                	mv	s2,a0
    80000506:	e40c                	sd	a1,8(s0)
    80000508:	e810                	sd	a2,16(s0)
    8000050a:	ec14                	sd	a3,24(s0)
    8000050c:	f018                	sd	a4,32(s0)
    8000050e:	f41c                	sd	a5,40(s0)
    80000510:	03043823          	sd	a6,48(s0)
    80000514:	03143c23          	sd	a7,56(s0)
  va_list ap;
  int i, cx, c0, c1, c2;
  char *s;

  if(panicking == 0)
    80000518:	0000d797          	auipc	a5,0xd
    8000051c:	e8c7a783          	lw	a5,-372(a5) # 8000d3a4 <panicking>
    80000520:	cf9d                	beqz	a5,8000055e <printf+0x64>
    acquire(&pr.lock);

  va_start(ap, fmt);
    80000522:	00840793          	addi	a5,s0,8
    80000526:	f8f43423          	sd	a5,-120(s0)
  for(i = 0; (cx = fmt[i] & 0xff) != 0; i++){
    8000052a:	00094503          	lbu	a0,0(s2)
    8000052e:	22050663          	beqz	a0,8000075a <printf+0x260>
    80000532:	f4a6                	sd	s1,104(sp)
    80000534:	ecce                	sd	s3,88(sp)
    80000536:	e8d2                	sd	s4,80(sp)
    80000538:	e4d6                	sd	s5,72(sp)
    8000053a:	e0da                	sd	s6,64(sp)
    8000053c:	fc5e                	sd	s7,56(sp)
    8000053e:	f862                	sd	s8,48(sp)
    80000540:	f06a                	sd	s10,32(sp)
    80000542:	ec6e                	sd	s11,24(sp)
    80000544:	4a01                	li	s4,0
    if(cx != '%'){
    80000546:	02500993          	li	s3,37
      printint(va_arg(ap, uint64), 10, 1);
      i += 1;
    } else if(c0 == 'l' && c1 == 'l' && c2 == 'd'){
      printint(va_arg(ap, uint64), 10, 1);
      i += 2;
    } else if(c0 == 'u'){
    8000054a:	07500c13          	li	s8,117
      printint(va_arg(ap, uint64), 10, 0);
      i += 1;
    } else if(c0 == 'l' && c1 == 'l' && c2 == 'u'){
      printint(va_arg(ap, uint64), 10, 0);
      i += 2;
    } else if(c0 == 'x'){
    8000054e:	07800d13          	li	s10,120
      printint(va_arg(ap, uint64), 16, 0);
      i += 1;
    } else if(c0 == 'l' && c1 == 'l' && c2 == 'x'){
      printint(va_arg(ap, uint64), 16, 0);
      i += 2;
    } else if(c0 == 'p'){
    80000552:	07000d93          	li	s11,112
      printint(va_arg(ap, uint64), 10, 0);
    80000556:	4b29                	li	s6,10
    if(c0 == 'd'){
    80000558:	06400b93          	li	s7,100
    8000055c:	a015                	j	80000580 <printf+0x86>
    acquire(&pr.lock);
    8000055e:	00015517          	auipc	a0,0x15
    80000562:	f1a50513          	addi	a0,a0,-230 # 80015478 <pr>
    80000566:	6c6000ef          	jal	80000c2c <acquire>
    8000056a:	bf65                	j	80000522 <printf+0x28>
      consputc(cx);
    8000056c:	d0fff0ef          	jal	8000027a <consputc>
      continue;
    80000570:	84d2                	mv	s1,s4
  for(i = 0; (cx = fmt[i] & 0xff) != 0; i++){
    80000572:	2485                	addiw	s1,s1,1
    80000574:	8a26                	mv	s4,s1
    80000576:	94ca                	add	s1,s1,s2
    80000578:	0004c503          	lbu	a0,0(s1)
    8000057c:	1c050663          	beqz	a0,80000748 <printf+0x24e>
    if(cx != '%'){
    80000580:	ff3516e3          	bne	a0,s3,8000056c <printf+0x72>
    i++;
    80000584:	001a079b          	addiw	a5,s4,1
    80000588:	84be                	mv	s1,a5
    c0 = fmt[i+0] & 0xff;
    8000058a:	00f90733          	add	a4,s2,a5
    8000058e:	00074a83          	lbu	s5,0(a4)
    if(c0) c1 = fmt[i+1] & 0xff;
    80000592:	200a8963          	beqz	s5,800007a4 <printf+0x2aa>
    80000596:	00174683          	lbu	a3,1(a4)
    if(c1) c2 = fmt[i+2] & 0xff;
    8000059a:	1e068c63          	beqz	a3,80000792 <printf+0x298>
    if(c0 == 'd'){
    8000059e:	037a8863          	beq	s5,s7,800005ce <printf+0xd4>
    } else if(c0 == 'l' && c1 == 'd'){
    800005a2:	f94a8713          	addi	a4,s5,-108
    800005a6:	00173713          	seqz	a4,a4
    800005aa:	f9c68613          	addi	a2,a3,-100
    800005ae:	ee05                	bnez	a2,800005e6 <printf+0xec>
    800005b0:	cb1d                	beqz	a4,800005e6 <printf+0xec>
      printint(va_arg(ap, uint64), 10, 1);
    800005b2:	f8843783          	ld	a5,-120(s0)
    800005b6:	00878713          	addi	a4,a5,8
    800005ba:	f8e43423          	sd	a4,-120(s0)
    800005be:	4605                	li	a2,1
    800005c0:	85da                	mv	a1,s6
    800005c2:	6388                	ld	a0,0(a5)
    800005c4:	ea1ff0ef          	jal	80000464 <printint>
      i += 1;
    800005c8:	002a049b          	addiw	s1,s4,2
    800005cc:	b75d                	j	80000572 <printf+0x78>
      printint(va_arg(ap, int), 10, 1);
    800005ce:	f8843783          	ld	a5,-120(s0)
    800005d2:	00878713          	addi	a4,a5,8
    800005d6:	f8e43423          	sd	a4,-120(s0)
    800005da:	4605                	li	a2,1
    800005dc:	85da                	mv	a1,s6
    800005de:	4388                	lw	a0,0(a5)
    800005e0:	e85ff0ef          	jal	80000464 <printint>
    800005e4:	b779                	j	80000572 <printf+0x78>
    if(c1) c2 = fmt[i+2] & 0xff;
    800005e6:	97ca                	add	a5,a5,s2
    800005e8:	8636                	mv	a2,a3
    800005ea:	0027c683          	lbu	a3,2(a5)
    800005ee:	a2c9                	j	800007b0 <printf+0x2b6>
      printint(va_arg(ap, uint64), 10, 1);
    800005f0:	f8843783          	ld	a5,-120(s0)
    800005f4:	00878713          	addi	a4,a5,8
    800005f8:	f8e43423          	sd	a4,-120(s0)
    800005fc:	4605                	li	a2,1
    800005fe:	45a9                	li	a1,10
    80000600:	6388                	ld	a0,0(a5)
    80000602:	e63ff0ef          	jal	80000464 <printint>
      i += 2;
    80000606:	003a049b          	addiw	s1,s4,3
    8000060a:	b7a5                	j	80000572 <printf+0x78>
      printint(va_arg(ap, uint32), 10, 0);
    8000060c:	f8843783          	ld	a5,-120(s0)
    80000610:	00878713          	addi	a4,a5,8
    80000614:	f8e43423          	sd	a4,-120(s0)
    80000618:	4601                	li	a2,0
    8000061a:	85da                	mv	a1,s6
    8000061c:	0007e503          	lwu	a0,0(a5)
    80000620:	e45ff0ef          	jal	80000464 <printint>
    80000624:	b7b9                	j	80000572 <printf+0x78>
      printint(va_arg(ap, uint64), 10, 0);
    80000626:	f8843783          	ld	a5,-120(s0)
    8000062a:	00878713          	addi	a4,a5,8
    8000062e:	f8e43423          	sd	a4,-120(s0)
    80000632:	4601                	li	a2,0
    80000634:	85da                	mv	a1,s6
    80000636:	6388                	ld	a0,0(a5)
    80000638:	e2dff0ef          	jal	80000464 <printint>
      i += 1;
    8000063c:	002a049b          	addiw	s1,s4,2
    80000640:	bf0d                	j	80000572 <printf+0x78>
      printint(va_arg(ap, uint64), 10, 0);
    80000642:	f8843783          	ld	a5,-120(s0)
    80000646:	00878713          	addi	a4,a5,8
    8000064a:	f8e43423          	sd	a4,-120(s0)
    8000064e:	4601                	li	a2,0
    80000650:	45a9                	li	a1,10
    80000652:	6388                	ld	a0,0(a5)
    80000654:	e11ff0ef          	jal	80000464 <printint>
      i += 2;
    80000658:	003a049b          	addiw	s1,s4,3
    8000065c:	bf19                	j	80000572 <printf+0x78>
      printint(va_arg(ap, uint32), 16, 0);
    8000065e:	f8843783          	ld	a5,-120(s0)
    80000662:	00878713          	addi	a4,a5,8
    80000666:	f8e43423          	sd	a4,-120(s0)
    8000066a:	4601                	li	a2,0
    8000066c:	45c1                	li	a1,16
    8000066e:	0007e503          	lwu	a0,0(a5)
    80000672:	df3ff0ef          	jal	80000464 <printint>
    80000676:	bdf5                	j	80000572 <printf+0x78>
      printint(va_arg(ap, uint64), 16, 0);
    80000678:	f8843783          	ld	a5,-120(s0)
    8000067c:	00878713          	addi	a4,a5,8
    80000680:	f8e43423          	sd	a4,-120(s0)
    80000684:	45c1                	li	a1,16
    80000686:	6388                	ld	a0,0(a5)
    80000688:	dddff0ef          	jal	80000464 <printint>
      i += 1;
    8000068c:	002a049b          	addiw	s1,s4,2
    80000690:	b5cd                	j	80000572 <printf+0x78>
      printint(va_arg(ap, uint64), 16, 0);
    80000692:	f8843783          	ld	a5,-120(s0)
    80000696:	00878713          	addi	a4,a5,8
    8000069a:	f8e43423          	sd	a4,-120(s0)
    8000069e:	4601                	li	a2,0
    800006a0:	45c1                	li	a1,16
    800006a2:	6388                	ld	a0,0(a5)
    800006a4:	dc1ff0ef          	jal	80000464 <printint>
      i += 2;
    800006a8:	003a049b          	addiw	s1,s4,3
    800006ac:	b5d9                	j	80000572 <printf+0x78>
    800006ae:	f466                	sd	s9,40(sp)
      printptr(va_arg(ap, uint64));
    800006b0:	f8843783          	ld	a5,-120(s0)
    800006b4:	00878713          	addi	a4,a5,8
    800006b8:	f8e43423          	sd	a4,-120(s0)
    800006bc:	0007ba83          	ld	s5,0(a5)
  consputc('0');
    800006c0:	03000513          	li	a0,48
    800006c4:	bb7ff0ef          	jal	8000027a <consputc>
  consputc('x');
    800006c8:	07800513          	li	a0,120
    800006cc:	bafff0ef          	jal	8000027a <consputc>
    800006d0:	4a41                	li	s4,16
    consputc(digits[x >> (sizeof(uint64) * 8 - 4)]);
    800006d2:	0000ac97          	auipc	s9,0xa
    800006d6:	b7ec8c93          	addi	s9,s9,-1154 # 8000a250 <digits>
    800006da:	03cad793          	srli	a5,s5,0x3c
    800006de:	97e6                	add	a5,a5,s9
    800006e0:	0007c503          	lbu	a0,0(a5)
    800006e4:	b97ff0ef          	jal	8000027a <consputc>
  for (i = 0; i < (sizeof(uint64) * 2); i++, x <<= 4)
    800006e8:	0a92                	slli	s5,s5,0x4
    800006ea:	3a7d                	addiw	s4,s4,-1
    800006ec:	fe0a17e3          	bnez	s4,800006da <printf+0x1e0>
    800006f0:	7ca2                	ld	s9,40(sp)
    800006f2:	b541                	j	80000572 <printf+0x78>
    } else if(c0 == 'c'){
      consputc(va_arg(ap, uint));
    800006f4:	f8843783          	ld	a5,-120(s0)
    800006f8:	00878713          	addi	a4,a5,8
    800006fc:	f8e43423          	sd	a4,-120(s0)
    80000700:	4388                	lw	a0,0(a5)
    80000702:	b79ff0ef          	jal	8000027a <consputc>
    80000706:	b5b5                	j	80000572 <printf+0x78>
    } else if(c0 == 's'){
      if((s = va_arg(ap, char*)) == 0)
    80000708:	f8843783          	ld	a5,-120(s0)
    8000070c:	00878713          	addi	a4,a5,8
    80000710:	f8e43423          	sd	a4,-120(s0)
    80000714:	0007ba03          	ld	s4,0(a5)
    80000718:	000a0d63          	beqz	s4,80000732 <printf+0x238>
        s = "(null)";
      for(; *s; s++)
    8000071c:	000a4503          	lbu	a0,0(s4)
    80000720:	e40509e3          	beqz	a0,80000572 <printf+0x78>
        consputc(*s);
    80000724:	b57ff0ef          	jal	8000027a <consputc>
      for(; *s; s++)
    80000728:	0a05                	addi	s4,s4,1
    8000072a:	000a4503          	lbu	a0,0(s4)
    8000072e:	f97d                	bnez	a0,80000724 <printf+0x22a>
    80000730:	b589                	j	80000572 <printf+0x78>
        s = "(null)";
    80000732:	00009a17          	auipc	s4,0x9
    80000736:	8d6a0a13          	addi	s4,s4,-1834 # 80009008 <etext+0x8>
      for(; *s; s++)
    8000073a:	02800513          	li	a0,40
    8000073e:	b7dd                	j	80000724 <printf+0x22a>
    } else if(c0 == '%'){
      consputc('%');
    80000740:	8556                	mv	a0,s5
    80000742:	b39ff0ef          	jal	8000027a <consputc>
    80000746:	b535                	j	80000572 <printf+0x78>
    80000748:	74a6                	ld	s1,104(sp)
    8000074a:	69e6                	ld	s3,88(sp)
    8000074c:	6a46                	ld	s4,80(sp)
    8000074e:	6aa6                	ld	s5,72(sp)
    80000750:	6b06                	ld	s6,64(sp)
    80000752:	7be2                	ld	s7,56(sp)
    80000754:	7c42                	ld	s8,48(sp)
    80000756:	7d02                	ld	s10,32(sp)
    80000758:	6de2                	ld	s11,24(sp)
    }

  }
  va_end(ap);

  if(panicking == 0)
    8000075a:	0000d797          	auipc	a5,0xd
    8000075e:	c4a7a783          	lw	a5,-950(a5) # 8000d3a4 <panicking>
    80000762:	c38d                	beqz	a5,80000784 <printf+0x28a>
    release(&pr.lock);

  return 0;
}
    80000764:	4501                	li	a0,0
    80000766:	70e6                	ld	ra,120(sp)
    80000768:	7446                	ld	s0,112(sp)
    8000076a:	7906                	ld	s2,96(sp)
    8000076c:	6129                	addi	sp,sp,192
    8000076e:	8082                	ret
    80000770:	74a6                	ld	s1,104(sp)
    80000772:	69e6                	ld	s3,88(sp)
    80000774:	6a46                	ld	s4,80(sp)
    80000776:	6aa6                	ld	s5,72(sp)
    80000778:	6b06                	ld	s6,64(sp)
    8000077a:	7be2                	ld	s7,56(sp)
    8000077c:	7c42                	ld	s8,48(sp)
    8000077e:	7d02                	ld	s10,32(sp)
    80000780:	6de2                	ld	s11,24(sp)
    80000782:	bfe1                	j	8000075a <printf+0x260>
    release(&pr.lock);
    80000784:	00015517          	auipc	a0,0x15
    80000788:	cf450513          	addi	a0,a0,-780 # 80015478 <pr>
    8000078c:	534000ef          	jal	80000cc0 <release>
  return 0;
    80000790:	bfd1                	j	80000764 <printf+0x26a>
    if(c0 == 'd'){
    80000792:	e37a8ee3          	beq	s5,s7,800005ce <printf+0xd4>
    } else if(c0 == 'l' && c1 == 'd'){
    80000796:	f94a8713          	addi	a4,s5,-108
    8000079a:	00173713          	seqz	a4,a4
    8000079e:	8636                	mv	a2,a3
    } else if(c0 == 'l' && c1 == 'l' && c2 == 'd'){
    800007a0:	4781                	li	a5,0
    800007a2:	a00d                	j	800007c4 <printf+0x2ca>
    } else if(c0 == 'l' && c1 == 'd'){
    800007a4:	f94a8713          	addi	a4,s5,-108
    800007a8:	00173713          	seqz	a4,a4
    c1 = c2 = 0;
    800007ac:	8656                	mv	a2,s5
    800007ae:	86d6                	mv	a3,s5
    } else if(c0 == 'l' && c1 == 'l' && c2 == 'd'){
    800007b0:	f9460793          	addi	a5,a2,-108
    800007b4:	0017b793          	seqz	a5,a5
    800007b8:	8ff9                	and	a5,a5,a4
    800007ba:	f9c68593          	addi	a1,a3,-100
    800007be:	e199                	bnez	a1,800007c4 <printf+0x2ca>
    800007c0:	e20798e3          	bnez	a5,800005f0 <printf+0xf6>
    } else if(c0 == 'u'){
    800007c4:	e58a84e3          	beq	s5,s8,8000060c <printf+0x112>
    } else if(c0 == 'l' && c1 == 'u'){
    800007c8:	f8b60593          	addi	a1,a2,-117
    800007cc:	e199                	bnez	a1,800007d2 <printf+0x2d8>
    800007ce:	e4071ce3          	bnez	a4,80000626 <printf+0x12c>
    } else if(c0 == 'l' && c1 == 'l' && c2 == 'u'){
    800007d2:	f8b68593          	addi	a1,a3,-117
    800007d6:	e199                	bnez	a1,800007dc <printf+0x2e2>
    800007d8:	e60795e3          	bnez	a5,80000642 <printf+0x148>
    } else if(c0 == 'x'){
    800007dc:	e9aa81e3          	beq	s5,s10,8000065e <printf+0x164>
    } else if(c0 == 'l' && c1 == 'x'){
    800007e0:	f8860613          	addi	a2,a2,-120
    800007e4:	e219                	bnez	a2,800007ea <printf+0x2f0>
    800007e6:	e80719e3          	bnez	a4,80000678 <printf+0x17e>
    } else if(c0 == 'l' && c1 == 'l' && c2 == 'x'){
    800007ea:	f8868693          	addi	a3,a3,-120
    800007ee:	e299                	bnez	a3,800007f4 <printf+0x2fa>
    800007f0:	ea0791e3          	bnez	a5,80000692 <printf+0x198>
    } else if(c0 == 'p'){
    800007f4:	ebba8de3          	beq	s5,s11,800006ae <printf+0x1b4>
    } else if(c0 == 'c'){
    800007f8:	06300793          	li	a5,99
    800007fc:	eefa8ce3          	beq	s5,a5,800006f4 <printf+0x1fa>
    } else if(c0 == 's'){
    80000800:	07300793          	li	a5,115
    80000804:	f0fa82e3          	beq	s5,a5,80000708 <printf+0x20e>
    } else if(c0 == '%'){
    80000808:	02500793          	li	a5,37
    8000080c:	f2fa8ae3          	beq	s5,a5,80000740 <printf+0x246>
    } else if(c0 == 0){
    80000810:	f60a80e3          	beqz	s5,80000770 <printf+0x276>
      consputc('%');
    80000814:	02500513          	li	a0,37
    80000818:	a63ff0ef          	jal	8000027a <consputc>
      consputc(c0);
    8000081c:	8556                	mv	a0,s5
    8000081e:	a5dff0ef          	jal	8000027a <consputc>
    80000822:	bb81                	j	80000572 <printf+0x78>

0000000080000824 <panic>:

void
panic(char *s)
{
    80000824:	1101                	addi	sp,sp,-32
    80000826:	ec06                	sd	ra,24(sp)
    80000828:	e822                	sd	s0,16(sp)
    8000082a:	e426                	sd	s1,8(sp)
    8000082c:	e04a                	sd	s2,0(sp)
    8000082e:	1000                	addi	s0,sp,32
    80000830:	892a                	mv	s2,a0
  panicking = 1;
    80000832:	4485                	li	s1,1
    80000834:	0000d797          	auipc	a5,0xd
    80000838:	b697a823          	sw	s1,-1168(a5) # 8000d3a4 <panicking>
  printf("panic: ");
    8000083c:	00008517          	auipc	a0,0x8
    80000840:	7dc50513          	addi	a0,a0,2012 # 80009018 <etext+0x18>
    80000844:	cb7ff0ef          	jal	800004fa <printf>
  printf("%s\n", s);
    80000848:	85ca                	mv	a1,s2
    8000084a:	00008517          	auipc	a0,0x8
    8000084e:	7d650513          	addi	a0,a0,2006 # 80009020 <etext+0x20>
    80000852:	ca9ff0ef          	jal	800004fa <printf>
  panicked = 1; // freeze uart output from other CPUs
    80000856:	0000d797          	auipc	a5,0xd
    8000085a:	b497a523          	sw	s1,-1206(a5) # 8000d3a0 <panicked>
  for(;;)
    8000085e:	a001                	j	8000085e <panic+0x3a>

0000000080000860 <printfinit>:
    ;
}

void
printfinit(void)
{
    80000860:	1141                	addi	sp,sp,-16
    80000862:	e406                	sd	ra,8(sp)
    80000864:	e022                	sd	s0,0(sp)
    80000866:	0800                	addi	s0,sp,16
  initlock(&pr.lock, "pr");
    80000868:	00008597          	auipc	a1,0x8
    8000086c:	7c058593          	addi	a1,a1,1984 # 80009028 <etext+0x28>
    80000870:	00015517          	auipc	a0,0x15
    80000874:	c0850513          	addi	a0,a0,-1016 # 80015478 <pr>
    80000878:	32a000ef          	jal	80000ba2 <initlock>
}
    8000087c:	60a2                	ld	ra,8(sp)
    8000087e:	6402                	ld	s0,0(sp)
    80000880:	0141                	addi	sp,sp,16
    80000882:	8082                	ret

0000000080000884 <uartinit>:
extern volatile int panicking; // from printf.c
extern volatile int panicked; // from printf.c

void
uartinit(void)
{
    80000884:	1141                	addi	sp,sp,-16
    80000886:	e406                	sd	ra,8(sp)
    80000888:	e022                	sd	s0,0(sp)
    8000088a:	0800                	addi	s0,sp,16
  // disable interrupts.
  WriteReg(IER, 0x00);
    8000088c:	100007b7          	lui	a5,0x10000
    80000890:	000780a3          	sb	zero,1(a5) # 10000001 <_entry-0x6fffffff>

  // special mode to set baud rate.
  WriteReg(LCR, LCR_BAUD_LATCH);
    80000894:	10000737          	lui	a4,0x10000
    80000898:	f8000693          	li	a3,-128
    8000089c:	00d701a3          	sb	a3,3(a4) # 10000003 <_entry-0x6ffffffd>

  // LSB for baud rate of 38.4K.
  WriteReg(0, 0x03);
    800008a0:	468d                	li	a3,3
    800008a2:	10000637          	lui	a2,0x10000
    800008a6:	00d60023          	sb	a3,0(a2) # 10000000 <_entry-0x70000000>

  // MSB for baud rate of 38.4K.
  WriteReg(1, 0x00);
    800008aa:	000780a3          	sb	zero,1(a5)

  // leave set-baud mode,
  // and set word length to 8 bits, no parity.
  WriteReg(LCR, LCR_EIGHT_BITS);
    800008ae:	00d701a3          	sb	a3,3(a4)

  // reset and enable FIFOs.
  WriteReg(FCR, FCR_FIFO_ENABLE | FCR_FIFO_CLEAR);
    800008b2:	8732                	mv	a4,a2
    800008b4:	461d                	li	a2,7
    800008b6:	00c70123          	sb	a2,2(a4)

  // enable transmit and receive interrupts.
  WriteReg(IER, IER_TX_ENABLE | IER_RX_ENABLE);
    800008ba:	00d780a3          	sb	a3,1(a5)

  initlock(&tx_lock, "uart");
    800008be:	00008597          	auipc	a1,0x8
    800008c2:	77258593          	addi	a1,a1,1906 # 80009030 <etext+0x30>
    800008c6:	00015517          	auipc	a0,0x15
    800008ca:	bca50513          	addi	a0,a0,-1078 # 80015490 <tx_lock>
    800008ce:	2d4000ef          	jal	80000ba2 <initlock>
}
    800008d2:	60a2                	ld	ra,8(sp)
    800008d4:	6402                	ld	s0,0(sp)
    800008d6:	0141                	addi	sp,sp,16
    800008d8:	8082                	ret

00000000800008da <uartwrite>:
// transmit buf[] to the uart. it blocks if the
// uart is busy, so it cannot be called from
// interrupts, only from write() system calls.
void
uartwrite(char buf[], int n)
{
    800008da:	715d                	addi	sp,sp,-80
    800008dc:	e486                	sd	ra,72(sp)
    800008de:	e0a2                	sd	s0,64(sp)
    800008e0:	fc26                	sd	s1,56(sp)
    800008e2:	ec56                	sd	s5,24(sp)
    800008e4:	0880                	addi	s0,sp,80
    800008e6:	8aaa                	mv	s5,a0
    800008e8:	84ae                	mv	s1,a1
  acquire(&tx_lock);
    800008ea:	00015517          	auipc	a0,0x15
    800008ee:	ba650513          	addi	a0,a0,-1114 # 80015490 <tx_lock>
    800008f2:	33a000ef          	jal	80000c2c <acquire>

  int i = 0;
  while(i < n){ 
    800008f6:	06905063          	blez	s1,80000956 <uartwrite+0x7c>
    800008fa:	f84a                	sd	s2,48(sp)
    800008fc:	f44e                	sd	s3,40(sp)
    800008fe:	f052                	sd	s4,32(sp)
    80000900:	e85a                	sd	s6,16(sp)
    80000902:	e45e                	sd	s7,8(sp)
    80000904:	8a56                	mv	s4,s5
    80000906:	9aa6                	add	s5,s5,s1
    while(tx_busy != 0){
    80000908:	0000d497          	auipc	s1,0xd
    8000090c:	aa448493          	addi	s1,s1,-1372 # 8000d3ac <tx_busy>
      // wait for a UART transmit-complete interrupt
      // to set tx_busy to 0.
      sleep(&tx_chan, &tx_lock);
    80000910:	00015997          	auipc	s3,0x15
    80000914:	b8098993          	addi	s3,s3,-1152 # 80015490 <tx_lock>
    80000918:	0000d917          	auipc	s2,0xd
    8000091c:	a9090913          	addi	s2,s2,-1392 # 8000d3a8 <tx_chan>
    }   
      
    WriteReg(THR, buf[i]);
    80000920:	10000bb7          	lui	s7,0x10000
    i += 1;
    tx_busy = 1;
    80000924:	4b05                	li	s6,1
    80000926:	a005                	j	80000946 <uartwrite+0x6c>
      sleep(&tx_chan, &tx_lock);
    80000928:	85ce                	mv	a1,s3
    8000092a:	854a                	mv	a0,s2
    8000092c:	50b020ef          	jal	80003636 <sleep>
    while(tx_busy != 0){
    80000930:	409c                	lw	a5,0(s1)
    80000932:	fbfd                	bnez	a5,80000928 <uartwrite+0x4e>
    WriteReg(THR, buf[i]);
    80000934:	000a4783          	lbu	a5,0(s4)
    80000938:	00fb8023          	sb	a5,0(s7) # 10000000 <_entry-0x70000000>
    tx_busy = 1;
    8000093c:	0164a023          	sw	s6,0(s1)
  while(i < n){ 
    80000940:	0a05                	addi	s4,s4,1
    80000942:	015a0563          	beq	s4,s5,8000094c <uartwrite+0x72>
    while(tx_busy != 0){
    80000946:	409c                	lw	a5,0(s1)
    80000948:	f3e5                	bnez	a5,80000928 <uartwrite+0x4e>
    8000094a:	b7ed                	j	80000934 <uartwrite+0x5a>
    8000094c:	7942                	ld	s2,48(sp)
    8000094e:	79a2                	ld	s3,40(sp)
    80000950:	7a02                	ld	s4,32(sp)
    80000952:	6b42                	ld	s6,16(sp)
    80000954:	6ba2                	ld	s7,8(sp)
  }

  release(&tx_lock);
    80000956:	00015517          	auipc	a0,0x15
    8000095a:	b3a50513          	addi	a0,a0,-1222 # 80015490 <tx_lock>
    8000095e:	362000ef          	jal	80000cc0 <release>
}
    80000962:	60a6                	ld	ra,72(sp)
    80000964:	6406                	ld	s0,64(sp)
    80000966:	74e2                	ld	s1,56(sp)
    80000968:	6ae2                	ld	s5,24(sp)
    8000096a:	6161                	addi	sp,sp,80
    8000096c:	8082                	ret

000000008000096e <uartputc_sync>:
// interrupts, for use by kernel printf() and
// to echo characters. it spins waiting for the uart's
// output register to be empty.
void
uartputc_sync(int c)
{
    8000096e:	1101                	addi	sp,sp,-32
    80000970:	ec06                	sd	ra,24(sp)
    80000972:	e822                	sd	s0,16(sp)
    80000974:	e426                	sd	s1,8(sp)
    80000976:	1000                	addi	s0,sp,32
    80000978:	84aa                	mv	s1,a0
  if(panicking == 0)
    8000097a:	0000d797          	auipc	a5,0xd
    8000097e:	a2a7a783          	lw	a5,-1494(a5) # 8000d3a4 <panicking>
    80000982:	cf95                	beqz	a5,800009be <uartputc_sync+0x50>
    push_off();

  if(panicked){
    80000984:	0000d797          	auipc	a5,0xd
    80000988:	a1c7a783          	lw	a5,-1508(a5) # 8000d3a0 <panicked>
    8000098c:	ef85                	bnez	a5,800009c4 <uartputc_sync+0x56>
    for(;;)
      ;
  }

  // wait for Transmit Holding Empty to be set in LSR.
  while((ReadReg(LSR) & LSR_TX_IDLE) == 0)
    8000098e:	10000737          	lui	a4,0x10000
    80000992:	0715                	addi	a4,a4,5 # 10000005 <_entry-0x6ffffffb>
    80000994:	00074783          	lbu	a5,0(a4)
    80000998:	0207f793          	andi	a5,a5,32
    8000099c:	dfe5                	beqz	a5,80000994 <uartputc_sync+0x26>
    ;
  WriteReg(THR, c);
    8000099e:	0ff4f513          	zext.b	a0,s1
    800009a2:	100007b7          	lui	a5,0x10000
    800009a6:	00a78023          	sb	a0,0(a5) # 10000000 <_entry-0x70000000>

  if(panicking == 0)
    800009aa:	0000d797          	auipc	a5,0xd
    800009ae:	9fa7a783          	lw	a5,-1542(a5) # 8000d3a4 <panicking>
    800009b2:	cb91                	beqz	a5,800009c6 <uartputc_sync+0x58>
    pop_off();
}
    800009b4:	60e2                	ld	ra,24(sp)
    800009b6:	6442                	ld	s0,16(sp)
    800009b8:	64a2                	ld	s1,8(sp)
    800009ba:	6105                	addi	sp,sp,32
    800009bc:	8082                	ret
    push_off();
    800009be:	22a000ef          	jal	80000be8 <push_off>
    800009c2:	b7c9                	j	80000984 <uartputc_sync+0x16>
    for(;;)
    800009c4:	a001                	j	800009c4 <uartputc_sync+0x56>
    pop_off();
    800009c6:	2aa000ef          	jal	80000c70 <pop_off>
}
    800009ca:	b7ed                	j	800009b4 <uartputc_sync+0x46>

00000000800009cc <uartgetc>:

// read one input character from the UART.
// return -1 if none is waiting.
int
uartgetc(void)
{
    800009cc:	1141                	addi	sp,sp,-16
    800009ce:	e406                	sd	ra,8(sp)
    800009d0:	e022                	sd	s0,0(sp)
    800009d2:	0800                	addi	s0,sp,16
  if(ReadReg(LSR) & LSR_RX_READY){
    800009d4:	100007b7          	lui	a5,0x10000
    800009d8:	0057c783          	lbu	a5,5(a5) # 10000005 <_entry-0x6ffffffb>
    800009dc:	8b85                	andi	a5,a5,1
    800009de:	cb89                	beqz	a5,800009f0 <uartgetc+0x24>
    // input data is ready.
    return ReadReg(RHR);
    800009e0:	100007b7          	lui	a5,0x10000
    800009e4:	0007c503          	lbu	a0,0(a5) # 10000000 <_entry-0x70000000>
  } else {
    return -1;
  }
}
    800009e8:	60a2                	ld	ra,8(sp)
    800009ea:	6402                	ld	s0,0(sp)
    800009ec:	0141                	addi	sp,sp,16
    800009ee:	8082                	ret
    return -1;
    800009f0:	557d                	li	a0,-1
    800009f2:	bfdd                	j	800009e8 <uartgetc+0x1c>

00000000800009f4 <uartintr>:
// handle a uart interrupt, raised because input has
// arrived, or the uart is ready for more output, or
// both. called from devintr().
void
uartintr(void)
{
    800009f4:	1101                	addi	sp,sp,-32
    800009f6:	ec06                	sd	ra,24(sp)
    800009f8:	e822                	sd	s0,16(sp)
    800009fa:	e426                	sd	s1,8(sp)
    800009fc:	1000                	addi	s0,sp,32
  ReadReg(ISR); // acknowledge the interrupt
    800009fe:	100007b7          	lui	a5,0x10000
    80000a02:	0027c783          	lbu	a5,2(a5) # 10000002 <_entry-0x6ffffffe>

  acquire(&tx_lock);
    80000a06:	00015517          	auipc	a0,0x15
    80000a0a:	a8a50513          	addi	a0,a0,-1398 # 80015490 <tx_lock>
    80000a0e:	21e000ef          	jal	80000c2c <acquire>
  if(ReadReg(LSR) & LSR_TX_IDLE){
    80000a12:	100007b7          	lui	a5,0x10000
    80000a16:	0057c783          	lbu	a5,5(a5) # 10000005 <_entry-0x6ffffffb>
    80000a1a:	0207f793          	andi	a5,a5,32
    80000a1e:	ef99                	bnez	a5,80000a3c <uartintr+0x48>
    // UART finished transmitting; wake up sending thread.
    tx_busy = 0;
    wakeup(&tx_chan);
  }
  release(&tx_lock);
    80000a20:	00015517          	auipc	a0,0x15
    80000a24:	a7050513          	addi	a0,a0,-1424 # 80015490 <tx_lock>
    80000a28:	298000ef          	jal	80000cc0 <release>

  // read and process incoming characters.
  while(1){
    int c = uartgetc();
    if(c == -1)
    80000a2c:	54fd                	li	s1,-1
    int c = uartgetc();
    80000a2e:	f9fff0ef          	jal	800009cc <uartgetc>
    if(c == -1)
    80000a32:	02950063          	beq	a0,s1,80000a52 <uartintr+0x5e>
      break;
    consoleintr(c);
    80000a36:	877ff0ef          	jal	800002ac <consoleintr>
  while(1){
    80000a3a:	bfd5                	j	80000a2e <uartintr+0x3a>
    tx_busy = 0;
    80000a3c:	0000d797          	auipc	a5,0xd
    80000a40:	9607a823          	sw	zero,-1680(a5) # 8000d3ac <tx_busy>
    wakeup(&tx_chan);
    80000a44:	0000d517          	auipc	a0,0xd
    80000a48:	96450513          	addi	a0,a0,-1692 # 8000d3a8 <tx_chan>
    80000a4c:	437020ef          	jal	80003682 <wakeup>
    80000a50:	bfc1                	j	80000a20 <uartintr+0x2c>
  }
}
    80000a52:	60e2                	ld	ra,24(sp)
    80000a54:	6442                	ld	s0,16(sp)
    80000a56:	64a2                	ld	s1,8(sp)
    80000a58:	6105                	addi	sp,sp,32
    80000a5a:	8082                	ret

0000000080000a5c <kfree>:
// which normally should have been returned by a
// call to kalloc().  (The exception is when
// initializing the allocator; see kinit above.)
void
kfree(void *pa)
{
    80000a5c:	1101                	addi	sp,sp,-32
    80000a5e:	ec06                	sd	ra,24(sp)
    80000a60:	e822                	sd	s0,16(sp)
    80000a62:	e426                	sd	s1,8(sp)
    80000a64:	e04a                	sd	s2,0(sp)
    80000a66:	1000                	addi	s0,sp,32
  struct run *r;

  if(((uint64)pa % PGSIZE) != 0 || (char*)pa < end || (uint64)pa >= PHYSTOP)
    80000a68:	002d3797          	auipc	a5,0x2d3
    80000a6c:	07078793          	addi	a5,a5,112 # 802d3ad8 <end>
    80000a70:	00f53733          	sltu	a4,a0,a5
    80000a74:	10100793          	li	a5,257
    80000a78:	07de                	slli	a5,a5,0x17
    80000a7a:	17fd                	addi	a5,a5,-1
    80000a7c:	00a7b7b3          	sltu	a5,a5,a0
    80000a80:	8fd9                	or	a5,a5,a4
    80000a82:	ef95                	bnez	a5,80000abe <kfree+0x62>
    80000a84:	84aa                	mv	s1,a0
    80000a86:	03451793          	slli	a5,a0,0x34
    80000a8a:	eb95                	bnez	a5,80000abe <kfree+0x62>
    panic("kfree");

  // Fill with junk to catch dangling refs.
  memset(pa, 1, PGSIZE);
    80000a8c:	6605                	lui	a2,0x1
    80000a8e:	4585                	li	a1,1
    80000a90:	26c000ef          	jal	80000cfc <memset>

  r = (struct run*)pa;

  acquire(&kmem.lock);
    80000a94:	00015917          	auipc	s2,0x15
    80000a98:	a1490913          	addi	s2,s2,-1516 # 800154a8 <kmem>
    80000a9c:	854a                	mv	a0,s2
    80000a9e:	18e000ef          	jal	80000c2c <acquire>
  r->next = kmem.freelist;
    80000aa2:	01893783          	ld	a5,24(s2)
    80000aa6:	e09c                	sd	a5,0(s1)
  kmem.freelist = r;
    80000aa8:	00993c23          	sd	s1,24(s2)
  release(&kmem.lock);
    80000aac:	854a                	mv	a0,s2
    80000aae:	212000ef          	jal	80000cc0 <release>
}
    80000ab2:	60e2                	ld	ra,24(sp)
    80000ab4:	6442                	ld	s0,16(sp)
    80000ab6:	64a2                	ld	s1,8(sp)
    80000ab8:	6902                	ld	s2,0(sp)
    80000aba:	6105                	addi	sp,sp,32
    80000abc:	8082                	ret
    panic("kfree");
    80000abe:	00008517          	auipc	a0,0x8
    80000ac2:	57a50513          	addi	a0,a0,1402 # 80009038 <etext+0x38>
    80000ac6:	d5fff0ef          	jal	80000824 <panic>

0000000080000aca <freerange>:
{
    80000aca:	7179                	addi	sp,sp,-48
    80000acc:	f406                	sd	ra,40(sp)
    80000ace:	f022                	sd	s0,32(sp)
    80000ad0:	ec26                	sd	s1,24(sp)
    80000ad2:	1800                	addi	s0,sp,48
  p = (char*)PGROUNDUP((uint64)pa_start);
    80000ad4:	6785                	lui	a5,0x1
    80000ad6:	fff78713          	addi	a4,a5,-1 # fff <_entry-0x7ffff001>
    80000ada:	00e504b3          	add	s1,a0,a4
    80000ade:	777d                	lui	a4,0xfffff
    80000ae0:	8cf9                	and	s1,s1,a4
  for(; p + PGSIZE <= (char*)pa_end; p += PGSIZE)
    80000ae2:	94be                	add	s1,s1,a5
    80000ae4:	0295e263          	bltu	a1,s1,80000b08 <freerange+0x3e>
    80000ae8:	e84a                	sd	s2,16(sp)
    80000aea:	e44e                	sd	s3,8(sp)
    80000aec:	e052                	sd	s4,0(sp)
    80000aee:	892e                	mv	s2,a1
    kfree(p);
    80000af0:	8a3a                	mv	s4,a4
  for(; p + PGSIZE <= (char*)pa_end; p += PGSIZE)
    80000af2:	89be                	mv	s3,a5
    kfree(p);
    80000af4:	01448533          	add	a0,s1,s4
    80000af8:	f65ff0ef          	jal	80000a5c <kfree>
  for(; p + PGSIZE <= (char*)pa_end; p += PGSIZE)
    80000afc:	94ce                	add	s1,s1,s3
    80000afe:	fe997be3          	bgeu	s2,s1,80000af4 <freerange+0x2a>
    80000b02:	6942                	ld	s2,16(sp)
    80000b04:	69a2                	ld	s3,8(sp)
    80000b06:	6a02                	ld	s4,0(sp)
}
    80000b08:	70a2                	ld	ra,40(sp)
    80000b0a:	7402                	ld	s0,32(sp)
    80000b0c:	64e2                	ld	s1,24(sp)
    80000b0e:	6145                	addi	sp,sp,48
    80000b10:	8082                	ret

0000000080000b12 <kinit>:
{
    80000b12:	1141                	addi	sp,sp,-16
    80000b14:	e406                	sd	ra,8(sp)
    80000b16:	e022                	sd	s0,0(sp)
    80000b18:	0800                	addi	s0,sp,16
  initlock(&kmem.lock, "kmem");
    80000b1a:	00008597          	auipc	a1,0x8
    80000b1e:	52658593          	addi	a1,a1,1318 # 80009040 <etext+0x40>
    80000b22:	00015517          	auipc	a0,0x15
    80000b26:	98650513          	addi	a0,a0,-1658 # 800154a8 <kmem>
    80000b2a:	078000ef          	jal	80000ba2 <initlock>
  freerange(end, (void*)PHYSTOP);
    80000b2e:	10100593          	li	a1,257
    80000b32:	05de                	slli	a1,a1,0x17
    80000b34:	002d3517          	auipc	a0,0x2d3
    80000b38:	fa450513          	addi	a0,a0,-92 # 802d3ad8 <end>
    80000b3c:	f8fff0ef          	jal	80000aca <freerange>
}
    80000b40:	60a2                	ld	ra,8(sp)
    80000b42:	6402                	ld	s0,0(sp)
    80000b44:	0141                	addi	sp,sp,16
    80000b46:	8082                	ret

0000000080000b48 <kalloc>:
// Allocate one 4096-byte page of physical memory.
// Returns a pointer that the kernel can use.
// Returns 0 if the memory cannot be allocated.
void *
kalloc(void)
{
    80000b48:	1101                	addi	sp,sp,-32
    80000b4a:	ec06                	sd	ra,24(sp)
    80000b4c:	e822                	sd	s0,16(sp)
    80000b4e:	e426                	sd	s1,8(sp)
    80000b50:	1000                	addi	s0,sp,32
  struct run *r;

  acquire(&kmem.lock);
    80000b52:	00015517          	auipc	a0,0x15
    80000b56:	95650513          	addi	a0,a0,-1706 # 800154a8 <kmem>
    80000b5a:	0d2000ef          	jal	80000c2c <acquire>
  r = kmem.freelist;
    80000b5e:	00015497          	auipc	s1,0x15
    80000b62:	9624b483          	ld	s1,-1694(s1) # 800154c0 <kmem+0x18>
  if(r)
    80000b66:	c49d                	beqz	s1,80000b94 <kalloc+0x4c>
    kmem.freelist = r->next;
    80000b68:	609c                	ld	a5,0(s1)
    80000b6a:	00015717          	auipc	a4,0x15
    80000b6e:	94f73b23          	sd	a5,-1706(a4) # 800154c0 <kmem+0x18>
  release(&kmem.lock);
    80000b72:	00015517          	auipc	a0,0x15
    80000b76:	93650513          	addi	a0,a0,-1738 # 800154a8 <kmem>
    80000b7a:	146000ef          	jal	80000cc0 <release>

  if(r)
    memset((char*)r, 5, PGSIZE); // fill with junk
    80000b7e:	6605                	lui	a2,0x1
    80000b80:	4595                	li	a1,5
    80000b82:	8526                	mv	a0,s1
    80000b84:	178000ef          	jal	80000cfc <memset>
  return (void*)r;
}
    80000b88:	8526                	mv	a0,s1
    80000b8a:	60e2                	ld	ra,24(sp)
    80000b8c:	6442                	ld	s0,16(sp)
    80000b8e:	64a2                	ld	s1,8(sp)
    80000b90:	6105                	addi	sp,sp,32
    80000b92:	8082                	ret
  release(&kmem.lock);
    80000b94:	00015517          	auipc	a0,0x15
    80000b98:	91450513          	addi	a0,a0,-1772 # 800154a8 <kmem>
    80000b9c:	124000ef          	jal	80000cc0 <release>
  if(r)
    80000ba0:	b7e5                	j	80000b88 <kalloc+0x40>

0000000080000ba2 <initlock>:
#include "proc.h"
#include "defs.h"

void
initlock(struct spinlock *lk, char *name)
{
    80000ba2:	1141                	addi	sp,sp,-16
    80000ba4:	e406                	sd	ra,8(sp)
    80000ba6:	e022                	sd	s0,0(sp)
    80000ba8:	0800                	addi	s0,sp,16
  lk->name = name;
    80000baa:	e50c                	sd	a1,8(a0)
  lk->locked = 0;
    80000bac:	00052023          	sw	zero,0(a0)
  lk->cpu = 0;
    80000bb0:	00053823          	sd	zero,16(a0)
}
    80000bb4:	60a2                	ld	ra,8(sp)
    80000bb6:	6402                	ld	s0,0(sp)
    80000bb8:	0141                	addi	sp,sp,16
    80000bba:	8082                	ret

0000000080000bbc <holding>:
// Interrupts must be off.
int
holding(struct spinlock *lk)
{
  int r;
  r = (lk->locked && lk->cpu == mycpu());
    80000bbc:	411c                	lw	a5,0(a0)
    80000bbe:	e399                	bnez	a5,80000bc4 <holding+0x8>
    80000bc0:	4501                	li	a0,0
  return r;
}
    80000bc2:	8082                	ret
{
    80000bc4:	1101                	addi	sp,sp,-32
    80000bc6:	ec06                	sd	ra,24(sp)
    80000bc8:	e822                	sd	s0,16(sp)
    80000bca:	e426                	sd	s1,8(sp)
    80000bcc:	1000                	addi	s0,sp,32
  r = (lk->locked && lk->cpu == mycpu());
    80000bce:	691c                	ld	a5,16(a0)
    80000bd0:	84be                	mv	s1,a5
    80000bd2:	252020ef          	jal	80002e24 <mycpu>
    80000bd6:	40a48533          	sub	a0,s1,a0
    80000bda:	00153513          	seqz	a0,a0
}
    80000bde:	60e2                	ld	ra,24(sp)
    80000be0:	6442                	ld	s0,16(sp)
    80000be2:	64a2                	ld	s1,8(sp)
    80000be4:	6105                	addi	sp,sp,32
    80000be6:	8082                	ret

0000000080000be8 <push_off>:
// it takes two pop_off()s to undo two push_off()s.  Also, if interrupts
// are initially off, then push_off, pop_off leaves them off.

void
push_off(void)
{
    80000be8:	1101                	addi	sp,sp,-32
    80000bea:	ec06                	sd	ra,24(sp)
    80000bec:	e822                	sd	s0,16(sp)
    80000bee:	e426                	sd	s1,8(sp)
    80000bf0:	1000                	addi	s0,sp,32
  asm volatile("csrr %0, sstatus" : "=r" (x) );
    80000bf2:	100027f3          	csrr	a5,sstatus
    80000bf6:	84be                	mv	s1,a5
    80000bf8:	100027f3          	csrr	a5,sstatus
  w_sstatus(r_sstatus() & ~SSTATUS_SIE);
    80000bfc:	9bf5                	andi	a5,a5,-3
  asm volatile("csrw sstatus, %0" : : "r" (x));
    80000bfe:	10079073          	csrw	sstatus,a5

  // disable interrupts to prevent an involuntary context
  // switch while using mycpu().
  intr_off();

  if(mycpu()->noff == 0)
    80000c02:	222020ef          	jal	80002e24 <mycpu>
    80000c06:	5d3c                	lw	a5,120(a0)
    80000c08:	cb99                	beqz	a5,80000c1e <push_off+0x36>
    mycpu()->intena = old;
  mycpu()->noff += 1;
    80000c0a:	21a020ef          	jal	80002e24 <mycpu>
    80000c0e:	5d3c                	lw	a5,120(a0)
    80000c10:	2785                	addiw	a5,a5,1
    80000c12:	dd3c                	sw	a5,120(a0)
}
    80000c14:	60e2                	ld	ra,24(sp)
    80000c16:	6442                	ld	s0,16(sp)
    80000c18:	64a2                	ld	s1,8(sp)
    80000c1a:	6105                	addi	sp,sp,32
    80000c1c:	8082                	ret
    mycpu()->intena = old;
    80000c1e:	206020ef          	jal	80002e24 <mycpu>
  return (x & SSTATUS_SIE) != 0;
    80000c22:	0014d793          	srli	a5,s1,0x1
    80000c26:	8b85                	andi	a5,a5,1
    80000c28:	dd7c                	sw	a5,124(a0)
    80000c2a:	b7c5                	j	80000c0a <push_off+0x22>

0000000080000c2c <acquire>:
{
    80000c2c:	1101                	addi	sp,sp,-32
    80000c2e:	ec06                	sd	ra,24(sp)
    80000c30:	e822                	sd	s0,16(sp)
    80000c32:	e426                	sd	s1,8(sp)
    80000c34:	1000                	addi	s0,sp,32
    80000c36:	84aa                	mv	s1,a0
  push_off(); // disable interrupts to avoid deadlock.
    80000c38:	fb1ff0ef          	jal	80000be8 <push_off>
  if(holding(lk))
    80000c3c:	8526                	mv	a0,s1
    80000c3e:	f7fff0ef          	jal	80000bbc <holding>
  while(__sync_lock_test_and_set(&lk->locked, 1) != 0)
    80000c42:	4705                	li	a4,1
  if(holding(lk))
    80000c44:	e105                	bnez	a0,80000c64 <acquire+0x38>
  while(__sync_lock_test_and_set(&lk->locked, 1) != 0)
    80000c46:	87ba                	mv	a5,a4
    80000c48:	0cf4a7af          	amoswap.w.aq	a5,a5,(s1)
    80000c4c:	2781                	sext.w	a5,a5
    80000c4e:	ffe5                	bnez	a5,80000c46 <acquire+0x1a>
  __sync_synchronize();
    80000c50:	0330000f          	fence	rw,rw
  lk->cpu = mycpu();
    80000c54:	1d0020ef          	jal	80002e24 <mycpu>
    80000c58:	e888                	sd	a0,16(s1)
}
    80000c5a:	60e2                	ld	ra,24(sp)
    80000c5c:	6442                	ld	s0,16(sp)
    80000c5e:	64a2                	ld	s1,8(sp)
    80000c60:	6105                	addi	sp,sp,32
    80000c62:	8082                	ret
    panic("acquire");
    80000c64:	00008517          	auipc	a0,0x8
    80000c68:	3e450513          	addi	a0,a0,996 # 80009048 <etext+0x48>
    80000c6c:	bb9ff0ef          	jal	80000824 <panic>

0000000080000c70 <pop_off>:

void
pop_off(void)
{
    80000c70:	1141                	addi	sp,sp,-16
    80000c72:	e406                	sd	ra,8(sp)
    80000c74:	e022                	sd	s0,0(sp)
    80000c76:	0800                	addi	s0,sp,16
  struct cpu *c = mycpu();
    80000c78:	1ac020ef          	jal	80002e24 <mycpu>
  asm volatile("csrr %0, sstatus" : "=r" (x) );
    80000c7c:	100027f3          	csrr	a5,sstatus
  return (x & SSTATUS_SIE) != 0;
    80000c80:	8b89                	andi	a5,a5,2
  if(intr_get())
    80000c82:	e39d                	bnez	a5,80000ca8 <pop_off+0x38>
    panic("pop_off - interruptible");
  if(c->noff < 1)
    80000c84:	5d3c                	lw	a5,120(a0)
    80000c86:	02f05763          	blez	a5,80000cb4 <pop_off+0x44>
    panic("pop_off");
  c->noff -= 1;
    80000c8a:	37fd                	addiw	a5,a5,-1
    80000c8c:	dd3c                	sw	a5,120(a0)
  if(c->noff == 0 && c->intena)
    80000c8e:	eb89                	bnez	a5,80000ca0 <pop_off+0x30>
    80000c90:	5d7c                	lw	a5,124(a0)
    80000c92:	c799                	beqz	a5,80000ca0 <pop_off+0x30>
  asm volatile("csrr %0, sstatus" : "=r" (x) );
    80000c94:	100027f3          	csrr	a5,sstatus
  w_sstatus(r_sstatus() | SSTATUS_SIE);
    80000c98:	0027e793          	ori	a5,a5,2
  asm volatile("csrw sstatus, %0" : : "r" (x));
    80000c9c:	10079073          	csrw	sstatus,a5
    intr_on();
}
    80000ca0:	60a2                	ld	ra,8(sp)
    80000ca2:	6402                	ld	s0,0(sp)
    80000ca4:	0141                	addi	sp,sp,16
    80000ca6:	8082                	ret
    panic("pop_off - interruptible");
    80000ca8:	00008517          	auipc	a0,0x8
    80000cac:	3a850513          	addi	a0,a0,936 # 80009050 <etext+0x50>
    80000cb0:	b75ff0ef          	jal	80000824 <panic>
    panic("pop_off");
    80000cb4:	00008517          	auipc	a0,0x8
    80000cb8:	3b450513          	addi	a0,a0,948 # 80009068 <etext+0x68>
    80000cbc:	b69ff0ef          	jal	80000824 <panic>

0000000080000cc0 <release>:
{
    80000cc0:	1101                	addi	sp,sp,-32
    80000cc2:	ec06                	sd	ra,24(sp)
    80000cc4:	e822                	sd	s0,16(sp)
    80000cc6:	e426                	sd	s1,8(sp)
    80000cc8:	1000                	addi	s0,sp,32
    80000cca:	84aa                	mv	s1,a0
  if(!holding(lk))
    80000ccc:	ef1ff0ef          	jal	80000bbc <holding>
    80000cd0:	c105                	beqz	a0,80000cf0 <release+0x30>
  lk->cpu = 0;
    80000cd2:	0004b823          	sd	zero,16(s1)
  __sync_synchronize();
    80000cd6:	0330000f          	fence	rw,rw
  __sync_lock_release(&lk->locked);
    80000cda:	0310000f          	fence	rw,w
    80000cde:	0004a023          	sw	zero,0(s1)
  pop_off();
    80000ce2:	f8fff0ef          	jal	80000c70 <pop_off>
}
    80000ce6:	60e2                	ld	ra,24(sp)
    80000ce8:	6442                	ld	s0,16(sp)
    80000cea:	64a2                	ld	s1,8(sp)
    80000cec:	6105                	addi	sp,sp,32
    80000cee:	8082                	ret
    panic("release");
    80000cf0:	00008517          	auipc	a0,0x8
    80000cf4:	38050513          	addi	a0,a0,896 # 80009070 <etext+0x70>
    80000cf8:	b2dff0ef          	jal	80000824 <panic>

0000000080000cfc <memset>:
#include "types.h"

void*
memset(void *dst, int c, uint n)
{
    80000cfc:	1141                	addi	sp,sp,-16
    80000cfe:	e406                	sd	ra,8(sp)
    80000d00:	e022                	sd	s0,0(sp)
    80000d02:	0800                	addi	s0,sp,16
  char *cdst = (char *) dst;
  int i;
  for(i = 0; i < n; i++){
    80000d04:	ca19                	beqz	a2,80000d1a <memset+0x1e>
    80000d06:	87aa                	mv	a5,a0
    80000d08:	1602                	slli	a2,a2,0x20
    80000d0a:	9201                	srli	a2,a2,0x20
    80000d0c:	00a60733          	add	a4,a2,a0
    cdst[i] = c;
    80000d10:	00b78023          	sb	a1,0(a5)
  for(i = 0; i < n; i++){
    80000d14:	0785                	addi	a5,a5,1
    80000d16:	fee79de3          	bne	a5,a4,80000d10 <memset+0x14>
  }
  return dst;
}
    80000d1a:	60a2                	ld	ra,8(sp)
    80000d1c:	6402                	ld	s0,0(sp)
    80000d1e:	0141                	addi	sp,sp,16
    80000d20:	8082                	ret

0000000080000d22 <memcmp>:

int
memcmp(const void *v1, const void *v2, uint n)
{
    80000d22:	1141                	addi	sp,sp,-16
    80000d24:	e406                	sd	ra,8(sp)
    80000d26:	e022                	sd	s0,0(sp)
    80000d28:	0800                	addi	s0,sp,16
  const uchar *s1, *s2;

  s1 = v1;
  s2 = v2;
  while(n-- > 0){
    80000d2a:	c61d                	beqz	a2,80000d58 <memcmp+0x36>
    80000d2c:	1602                	slli	a2,a2,0x20
    80000d2e:	9201                	srli	a2,a2,0x20
    80000d30:	00c506b3          	add	a3,a0,a2
    if(*s1 != *s2)
    80000d34:	00054783          	lbu	a5,0(a0)
    80000d38:	0005c703          	lbu	a4,0(a1)
    80000d3c:	00e79863          	bne	a5,a4,80000d4c <memcmp+0x2a>
      return *s1 - *s2;
    s1++, s2++;
    80000d40:	0505                	addi	a0,a0,1
    80000d42:	0585                	addi	a1,a1,1
  while(n-- > 0){
    80000d44:	fed518e3          	bne	a0,a3,80000d34 <memcmp+0x12>
  }

  return 0;
    80000d48:	4501                	li	a0,0
    80000d4a:	a019                	j	80000d50 <memcmp+0x2e>
      return *s1 - *s2;
    80000d4c:	40e7853b          	subw	a0,a5,a4
}
    80000d50:	60a2                	ld	ra,8(sp)
    80000d52:	6402                	ld	s0,0(sp)
    80000d54:	0141                	addi	sp,sp,16
    80000d56:	8082                	ret
  return 0;
    80000d58:	4501                	li	a0,0
    80000d5a:	bfdd                	j	80000d50 <memcmp+0x2e>

0000000080000d5c <memmove>:

void*
memmove(void *dst, const void *src, uint n)
{
    80000d5c:	1141                	addi	sp,sp,-16
    80000d5e:	e406                	sd	ra,8(sp)
    80000d60:	e022                	sd	s0,0(sp)
    80000d62:	0800                	addi	s0,sp,16
  const char *s;
  char *d;

  if(n == 0)
    80000d64:	c205                	beqz	a2,80000d84 <memmove+0x28>
    return dst;
  
  s = src;
  d = dst;
  if(s < d && s + n > d){
    80000d66:	02a5e363          	bltu	a1,a0,80000d8c <memmove+0x30>
    s += n;
    d += n;
    while(n-- > 0)
      *--d = *--s;
  } else
    while(n-- > 0)
    80000d6a:	1602                	slli	a2,a2,0x20
    80000d6c:	9201                	srli	a2,a2,0x20
    80000d6e:	00c587b3          	add	a5,a1,a2
{
    80000d72:	872a                	mv	a4,a0
      *d++ = *s++;
    80000d74:	0585                	addi	a1,a1,1
    80000d76:	0705                	addi	a4,a4,1
    80000d78:	fff5c683          	lbu	a3,-1(a1)
    80000d7c:	fed70fa3          	sb	a3,-1(a4)
    while(n-- > 0)
    80000d80:	feb79ae3          	bne	a5,a1,80000d74 <memmove+0x18>

  return dst;
}
    80000d84:	60a2                	ld	ra,8(sp)
    80000d86:	6402                	ld	s0,0(sp)
    80000d88:	0141                	addi	sp,sp,16
    80000d8a:	8082                	ret
  if(s < d && s + n > d){
    80000d8c:	02061693          	slli	a3,a2,0x20
    80000d90:	9281                	srli	a3,a3,0x20
    80000d92:	00d58733          	add	a4,a1,a3
    80000d96:	fce57ae3          	bgeu	a0,a4,80000d6a <memmove+0xe>
    d += n;
    80000d9a:	96aa                	add	a3,a3,a0
    while(n-- > 0)
    80000d9c:	fff6079b          	addiw	a5,a2,-1 # fff <_entry-0x7ffff001>
    80000da0:	1782                	slli	a5,a5,0x20
    80000da2:	9381                	srli	a5,a5,0x20
    80000da4:	fff7c793          	not	a5,a5
    80000da8:	97ba                	add	a5,a5,a4
      *--d = *--s;
    80000daa:	177d                	addi	a4,a4,-1
    80000dac:	16fd                	addi	a3,a3,-1
    80000dae:	00074603          	lbu	a2,0(a4)
    80000db2:	00c68023          	sb	a2,0(a3)
    while(n-- > 0)
    80000db6:	fee79ae3          	bne	a5,a4,80000daa <memmove+0x4e>
    80000dba:	b7e9                	j	80000d84 <memmove+0x28>

0000000080000dbc <memcpy>:

// memcpy exists to placate GCC.  Use memmove.
void*
memcpy(void *dst, const void *src, uint n)
{
    80000dbc:	1141                	addi	sp,sp,-16
    80000dbe:	e406                	sd	ra,8(sp)
    80000dc0:	e022                	sd	s0,0(sp)
    80000dc2:	0800                	addi	s0,sp,16
  return memmove(dst, src, n);
    80000dc4:	f99ff0ef          	jal	80000d5c <memmove>
}
    80000dc8:	60a2                	ld	ra,8(sp)
    80000dca:	6402                	ld	s0,0(sp)
    80000dcc:	0141                	addi	sp,sp,16
    80000dce:	8082                	ret

0000000080000dd0 <strncmp>:

int
strncmp(const char *p, const char *q, uint n)
{
    80000dd0:	1141                	addi	sp,sp,-16
    80000dd2:	e406                	sd	ra,8(sp)
    80000dd4:	e022                	sd	s0,0(sp)
    80000dd6:	0800                	addi	s0,sp,16
  while(n > 0 && *p && *p == *q)
    80000dd8:	ce11                	beqz	a2,80000df4 <strncmp+0x24>
    80000dda:	00054783          	lbu	a5,0(a0)
    80000dde:	cf89                	beqz	a5,80000df8 <strncmp+0x28>
    80000de0:	0005c703          	lbu	a4,0(a1)
    80000de4:	00f71a63          	bne	a4,a5,80000df8 <strncmp+0x28>
    n--, p++, q++;
    80000de8:	367d                	addiw	a2,a2,-1
    80000dea:	0505                	addi	a0,a0,1
    80000dec:	0585                	addi	a1,a1,1
  while(n > 0 && *p && *p == *q)
    80000dee:	f675                	bnez	a2,80000dda <strncmp+0xa>
  if(n == 0)
    return 0;
    80000df0:	4501                	li	a0,0
    80000df2:	a801                	j	80000e02 <strncmp+0x32>
    80000df4:	4501                	li	a0,0
    80000df6:	a031                	j	80000e02 <strncmp+0x32>
  return (uchar)*p - (uchar)*q;
    80000df8:	00054503          	lbu	a0,0(a0)
    80000dfc:	0005c783          	lbu	a5,0(a1)
    80000e00:	9d1d                	subw	a0,a0,a5
}
    80000e02:	60a2                	ld	ra,8(sp)
    80000e04:	6402                	ld	s0,0(sp)
    80000e06:	0141                	addi	sp,sp,16
    80000e08:	8082                	ret

0000000080000e0a <strncpy>:

char*
strncpy(char *s, const char *t, int n)
{
    80000e0a:	1141                	addi	sp,sp,-16
    80000e0c:	e406                	sd	ra,8(sp)
    80000e0e:	e022                	sd	s0,0(sp)
    80000e10:	0800                	addi	s0,sp,16
  char *os;

  os = s;
  while(n-- > 0 && (*s++ = *t++) != 0)
    80000e12:	87aa                	mv	a5,a0
    80000e14:	a011                	j	80000e18 <strncpy+0xe>
    80000e16:	8636                	mv	a2,a3
    80000e18:	02c05863          	blez	a2,80000e48 <strncpy+0x3e>
    80000e1c:	fff6069b          	addiw	a3,a2,-1
    80000e20:	8836                	mv	a6,a3
    80000e22:	0785                	addi	a5,a5,1
    80000e24:	0005c703          	lbu	a4,0(a1)
    80000e28:	fee78fa3          	sb	a4,-1(a5)
    80000e2c:	0585                	addi	a1,a1,1
    80000e2e:	f765                	bnez	a4,80000e16 <strncpy+0xc>
    ;
  while(n-- > 0)
    80000e30:	873e                	mv	a4,a5
    80000e32:	01005b63          	blez	a6,80000e48 <strncpy+0x3e>
    80000e36:	9fb1                	addw	a5,a5,a2
    80000e38:	37fd                	addiw	a5,a5,-1
    *s++ = 0;
    80000e3a:	0705                	addi	a4,a4,1
    80000e3c:	fe070fa3          	sb	zero,-1(a4)
  while(n-- > 0)
    80000e40:	40e786bb          	subw	a3,a5,a4
    80000e44:	fed04be3          	bgtz	a3,80000e3a <strncpy+0x30>
  return os;
}
    80000e48:	60a2                	ld	ra,8(sp)
    80000e4a:	6402                	ld	s0,0(sp)
    80000e4c:	0141                	addi	sp,sp,16
    80000e4e:	8082                	ret

0000000080000e50 <safestrcpy>:

// Like strncpy but guaranteed to NUL-terminate.
char*
safestrcpy(char *s, const char *t, int n)
{
    80000e50:	1141                	addi	sp,sp,-16
    80000e52:	e406                	sd	ra,8(sp)
    80000e54:	e022                	sd	s0,0(sp)
    80000e56:	0800                	addi	s0,sp,16
  char *os;

  os = s;
  if(n <= 0)
    80000e58:	02c05363          	blez	a2,80000e7e <safestrcpy+0x2e>
    80000e5c:	fff6069b          	addiw	a3,a2,-1
    80000e60:	1682                	slli	a3,a3,0x20
    80000e62:	9281                	srli	a3,a3,0x20
    80000e64:	96ae                	add	a3,a3,a1
    80000e66:	87aa                	mv	a5,a0
    return os;
  while(--n > 0 && (*s++ = *t++) != 0)
    80000e68:	00d58963          	beq	a1,a3,80000e7a <safestrcpy+0x2a>
    80000e6c:	0585                	addi	a1,a1,1
    80000e6e:	0785                	addi	a5,a5,1
    80000e70:	fff5c703          	lbu	a4,-1(a1)
    80000e74:	fee78fa3          	sb	a4,-1(a5)
    80000e78:	fb65                	bnez	a4,80000e68 <safestrcpy+0x18>
    ;
  *s = 0;
    80000e7a:	00078023          	sb	zero,0(a5)
  return os;
}
    80000e7e:	60a2                	ld	ra,8(sp)
    80000e80:	6402                	ld	s0,0(sp)
    80000e82:	0141                	addi	sp,sp,16
    80000e84:	8082                	ret

0000000080000e86 <strlen>:

int
strlen(const char *s)
{
    80000e86:	1141                	addi	sp,sp,-16
    80000e88:	e406                	sd	ra,8(sp)
    80000e8a:	e022                	sd	s0,0(sp)
    80000e8c:	0800                	addi	s0,sp,16
  int n;

  for(n = 0; s[n]; n++)
    80000e8e:	00054783          	lbu	a5,0(a0)
    80000e92:	cf91                	beqz	a5,80000eae <strlen+0x28>
    80000e94:	00150793          	addi	a5,a0,1
    80000e98:	86be                	mv	a3,a5
    80000e9a:	0785                	addi	a5,a5,1
    80000e9c:	fff7c703          	lbu	a4,-1(a5)
    80000ea0:	ff65                	bnez	a4,80000e98 <strlen+0x12>
    80000ea2:	40a6853b          	subw	a0,a3,a0
    ;
  return n;
}
    80000ea6:	60a2                	ld	ra,8(sp)
    80000ea8:	6402                	ld	s0,0(sp)
    80000eaa:	0141                	addi	sp,sp,16
    80000eac:	8082                	ret
  for(n = 0; s[n]; n++)
    80000eae:	4501                	li	a0,0
    80000eb0:	bfdd                	j	80000ea6 <strlen+0x20>

0000000080000eb2 <main>:
volatile static int started = 0;

// start() jumps here in supervisor mode on all CPUs.
void
main()
{
    80000eb2:	1141                	addi	sp,sp,-16
    80000eb4:	e406                	sd	ra,8(sp)
    80000eb6:	e022                	sd	s0,0(sp)
    80000eb8:	0800                	addi	s0,sp,16
  if(cpuid() == 0){
    80000eba:	757010ef          	jal	80002e10 <cpuid>
    virtio_disk_init(); // emulated hard disk
    userinit();      // first user process
    __sync_synchronize();
    started = 1;
  } else {
    while(started == 0)
    80000ebe:	0000c717          	auipc	a4,0xc
    80000ec2:	4f270713          	addi	a4,a4,1266 # 8000d3b0 <started>
  if(cpuid() == 0){
    80000ec6:	c51d                	beqz	a0,80000ef4 <main+0x42>
    while(started == 0)
    80000ec8:	431c                	lw	a5,0(a4)
    80000eca:	2781                	sext.w	a5,a5
    80000ecc:	dff5                	beqz	a5,80000ec8 <main+0x16>
      ;
    __sync_synchronize();
    80000ece:	0330000f          	fence	rw,rw
    printf("hart %d starting\n", cpuid());
    80000ed2:	73f010ef          	jal	80002e10 <cpuid>
    80000ed6:	85aa                	mv	a1,a0
    80000ed8:	00008517          	auipc	a0,0x8
    80000edc:	1c050513          	addi	a0,a0,448 # 80009098 <etext+0x98>
    80000ee0:	e1aff0ef          	jal	800004fa <printf>
    kvminithart();    // turn on paging
    80000ee4:	080000ef          	jal	80000f64 <kvminithart>
    trapinithart();   // install kernel trap vector
    80000ee8:	495020ef          	jal	80003b7c <trapinithart>
    plicinithart();   // ask PLIC for device interrupts
    80000eec:	1ec060ef          	jal	800070d8 <plicinithart>
  }

  scheduler();        
    80000ef0:	5a8020ef          	jal	80003498 <scheduler>
    consoleinit();
    80000ef4:	d2cff0ef          	jal	80000420 <consoleinit>
    printfinit();
    80000ef8:	969ff0ef          	jal	80000860 <printfinit>
    printf("\n");
    80000efc:	00008517          	auipc	a0,0x8
    80000f00:	17c50513          	addi	a0,a0,380 # 80009078 <etext+0x78>
    80000f04:	df6ff0ef          	jal	800004fa <printf>
    printf("xv6 kernel is booting\n");
    80000f08:	00008517          	auipc	a0,0x8
    80000f0c:	17850513          	addi	a0,a0,376 # 80009080 <etext+0x80>
    80000f10:	deaff0ef          	jal	800004fa <printf>
    printf("\n");
    80000f14:	00008517          	auipc	a0,0x8
    80000f18:	16450513          	addi	a0,a0,356 # 80009078 <etext+0x78>
    80000f1c:	ddeff0ef          	jal	800004fa <printf>
    kinit();         // physical page allocator
    80000f20:	bf3ff0ef          	jal	80000b12 <kinit>
    kvminit();       // create kernel page table
    80000f24:	2ce000ef          	jal	800011f2 <kvminit>
    kvminithart();   // turn on paging
    80000f28:	03c000ef          	jal	80000f64 <kvminithart>
    procinit();      // process table
    80000f2c:	629010ef          	jal	80002d54 <procinit>
    trapinit();      // trap vectors
    80000f30:	429020ef          	jal	80003b58 <trapinit>
    trapinithart();  // install kernel trap vector
    80000f34:	449020ef          	jal	80003b7c <trapinithart>
    plicinit();      // set up interrupt controller
    80000f38:	186060ef          	jal	800070be <plicinit>
    plicinithart();  // ask PLIC for device interrupts
    80000f3c:	19c060ef          	jal	800070d8 <plicinithart>
    binit();         // buffer cache
    80000f40:	5e6030ef          	jal	80004526 <binit>
    iinit();         // inode table
    80000f44:	339030ef          	jal	80004a7c <iinit>
    fileinit();      // file table
    80000f48:	265040ef          	jal	800059ac <fileinit>
    virtio_disk_init(); // emulated hard disk
    80000f4c:	27c060ef          	jal	800071c8 <virtio_disk_init>
    userinit();      // first user process
    80000f50:	2f4020ef          	jal	80003244 <userinit>
    __sync_synchronize();
    80000f54:	0330000f          	fence	rw,rw
    started = 1;
    80000f58:	4785                	li	a5,1
    80000f5a:	0000c717          	auipc	a4,0xc
    80000f5e:	44f72b23          	sw	a5,1110(a4) # 8000d3b0 <started>
    80000f62:	b779                	j	80000ef0 <main+0x3e>

0000000080000f64 <kvminithart>:

// Switch the current CPU's h/w page table register to
// the kernel's page table, and enable paging.
void
kvminithart()
{
    80000f64:	1141                	addi	sp,sp,-16
    80000f66:	e406                	sd	ra,8(sp)
    80000f68:	e022                	sd	s0,0(sp)
    80000f6a:	0800                	addi	s0,sp,16
// flush the TLB.
static inline void
sfence_vma()
{
  // the zero, zero means flush all TLB entries.
  asm volatile("sfence.vma zero, zero");
    80000f6c:	12000073          	sfence.vma
  // wait for any previous writes to the page table memory to finish.
  sfence_vma();

  w_satp(MAKE_SATP(kernel_pagetable));
    80000f70:	0000c797          	auipc	a5,0xc
    80000f74:	4487b783          	ld	a5,1096(a5) # 8000d3b8 <kernel_pagetable>
    80000f78:	83b1                	srli	a5,a5,0xc
    80000f7a:	577d                	li	a4,-1
    80000f7c:	177e                	slli	a4,a4,0x3f
    80000f7e:	8fd9                	or	a5,a5,a4
  asm volatile("csrw satp, %0" : : "r" (x));
    80000f80:	18079073          	csrw	satp,a5
  asm volatile("sfence.vma zero, zero");
    80000f84:	12000073          	sfence.vma

  // flush stale entries from the TLB.
  sfence_vma();
}
    80000f88:	60a2                	ld	ra,8(sp)
    80000f8a:	6402                	ld	s0,0(sp)
    80000f8c:	0141                	addi	sp,sp,16
    80000f8e:	8082                	ret

0000000080000f90 <walk>:
//   21..29 -- 9 bits of level-1 index.
//   12..20 -- 9 bits of level-0 index.
//    0..11 -- 12 bits of byte offset within the page.
pte_t *
walk(pagetable_t pagetable, uint64 va, int alloc)
{
    80000f90:	7139                	addi	sp,sp,-64
    80000f92:	fc06                	sd	ra,56(sp)
    80000f94:	f822                	sd	s0,48(sp)
    80000f96:	f426                	sd	s1,40(sp)
    80000f98:	f04a                	sd	s2,32(sp)
    80000f9a:	ec4e                	sd	s3,24(sp)
    80000f9c:	e852                	sd	s4,16(sp)
    80000f9e:	e456                	sd	s5,8(sp)
    80000fa0:	e05a                	sd	s6,0(sp)
    80000fa2:	0080                	addi	s0,sp,64
    80000fa4:	84aa                	mv	s1,a0
    80000fa6:	89ae                	mv	s3,a1
    80000fa8:	8b32                	mv	s6,a2
  if(va >= MAXVA)
    80000faa:	57fd                	li	a5,-1
    80000fac:	83e9                	srli	a5,a5,0x1a
    80000fae:	4a79                	li	s4,30
    panic("walk");

  for(int level = 2; level > 0; level--) {
    80000fb0:	4ab1                	li	s5,12
  if(va >= MAXVA)
    80000fb2:	04b7e263          	bltu	a5,a1,80000ff6 <walk+0x66>
    pte_t *pte = &pagetable[PX(level, va)];
    80000fb6:	0149d933          	srl	s2,s3,s4
    80000fba:	1ff97913          	andi	s2,s2,511
    80000fbe:	090e                	slli	s2,s2,0x3
    80000fc0:	9926                	add	s2,s2,s1
    if(*pte & PTE_V) {
    80000fc2:	00093483          	ld	s1,0(s2)
    80000fc6:	0014f793          	andi	a5,s1,1
    80000fca:	cf85                	beqz	a5,80001002 <walk+0x72>
      pagetable = (pagetable_t)PTE2PA(*pte);
    80000fcc:	80a9                	srli	s1,s1,0xa
    80000fce:	04b2                	slli	s1,s1,0xc
  for(int level = 2; level > 0; level--) {
    80000fd0:	3a5d                	addiw	s4,s4,-9
    80000fd2:	ff5a12e3          	bne	s4,s5,80000fb6 <walk+0x26>
        return 0;
      memset(pagetable, 0, PGSIZE);
      *pte = PA2PTE(pagetable) | PTE_V;
    }
  }
  return &pagetable[PX(0, va)];
    80000fd6:	00c9d513          	srli	a0,s3,0xc
    80000fda:	1ff57513          	andi	a0,a0,511
    80000fde:	050e                	slli	a0,a0,0x3
    80000fe0:	9526                	add	a0,a0,s1
}
    80000fe2:	70e2                	ld	ra,56(sp)
    80000fe4:	7442                	ld	s0,48(sp)
    80000fe6:	74a2                	ld	s1,40(sp)
    80000fe8:	7902                	ld	s2,32(sp)
    80000fea:	69e2                	ld	s3,24(sp)
    80000fec:	6a42                	ld	s4,16(sp)
    80000fee:	6aa2                	ld	s5,8(sp)
    80000ff0:	6b02                	ld	s6,0(sp)
    80000ff2:	6121                	addi	sp,sp,64
    80000ff4:	8082                	ret
    panic("walk");
    80000ff6:	00008517          	auipc	a0,0x8
    80000ffa:	0ba50513          	addi	a0,a0,186 # 800090b0 <etext+0xb0>
    80000ffe:	827ff0ef          	jal	80000824 <panic>
      if(!alloc || (pagetable = (pde_t*)kalloc()) == 0)
    80001002:	020b0263          	beqz	s6,80001026 <walk+0x96>
    80001006:	b43ff0ef          	jal	80000b48 <kalloc>
    8000100a:	84aa                	mv	s1,a0
    8000100c:	d979                	beqz	a0,80000fe2 <walk+0x52>
      memset(pagetable, 0, PGSIZE);
    8000100e:	6605                	lui	a2,0x1
    80001010:	4581                	li	a1,0
    80001012:	cebff0ef          	jal	80000cfc <memset>
      *pte = PA2PTE(pagetable) | PTE_V;
    80001016:	00c4d793          	srli	a5,s1,0xc
    8000101a:	07aa                	slli	a5,a5,0xa
    8000101c:	0017e793          	ori	a5,a5,1
    80001020:	00f93023          	sd	a5,0(s2)
    80001024:	b775                	j	80000fd0 <walk+0x40>
        return 0;
    80001026:	4501                	li	a0,0
    80001028:	bf6d                	j	80000fe2 <walk+0x52>

000000008000102a <walkaddr>:
walkaddr(pagetable_t pagetable, uint64 va)
{
  pte_t *pte;
  uint64 pa;

  if(va >= MAXVA)
    8000102a:	57fd                	li	a5,-1
    8000102c:	83e9                	srli	a5,a5,0x1a
    8000102e:	00b7f463          	bgeu	a5,a1,80001036 <walkaddr+0xc>
    return 0;
    80001032:	4501                	li	a0,0
    return 0;
  if((*pte & PTE_U) == 0)
    return 0;
  pa = PTE2PA(*pte);
  return pa;
}
    80001034:	8082                	ret
{
    80001036:	1141                	addi	sp,sp,-16
    80001038:	e406                	sd	ra,8(sp)
    8000103a:	e022                	sd	s0,0(sp)
    8000103c:	0800                	addi	s0,sp,16
  pte = walk(pagetable, va, 0);
    8000103e:	4601                	li	a2,0
    80001040:	f51ff0ef          	jal	80000f90 <walk>
  if(pte == 0)
    80001044:	c901                	beqz	a0,80001054 <walkaddr+0x2a>
  if((*pte & PTE_V) == 0)
    80001046:	611c                	ld	a5,0(a0)
  if((*pte & PTE_U) == 0)
    80001048:	0117f693          	andi	a3,a5,17
    8000104c:	4745                	li	a4,17
    return 0;
    8000104e:	4501                	li	a0,0
  if((*pte & PTE_U) == 0)
    80001050:	00e68663          	beq	a3,a4,8000105c <walkaddr+0x32>
}
    80001054:	60a2                	ld	ra,8(sp)
    80001056:	6402                	ld	s0,0(sp)
    80001058:	0141                	addi	sp,sp,16
    8000105a:	8082                	ret
  pa = PTE2PA(*pte);
    8000105c:	83a9                	srli	a5,a5,0xa
    8000105e:	00c79513          	slli	a0,a5,0xc
  return pa;
    80001062:	bfcd                	j	80001054 <walkaddr+0x2a>

0000000080001064 <mappages>:
// va and size MUST be page-aligned.
// Returns 0 on success, -1 if walk() couldn't
// allocate a needed page-table page.
int
mappages(pagetable_t pagetable, uint64 va, uint64 size, uint64 pa, int perm)
{
    80001064:	715d                	addi	sp,sp,-80
    80001066:	e486                	sd	ra,72(sp)
    80001068:	e0a2                	sd	s0,64(sp)
    8000106a:	fc26                	sd	s1,56(sp)
    8000106c:	f84a                	sd	s2,48(sp)
    8000106e:	f44e                	sd	s3,40(sp)
    80001070:	f052                	sd	s4,32(sp)
    80001072:	ec56                	sd	s5,24(sp)
    80001074:	e85a                	sd	s6,16(sp)
    80001076:	e45e                	sd	s7,8(sp)
    80001078:	0880                	addi	s0,sp,80
  uint64 a, last;
  pte_t *pte;

  if((va % PGSIZE) != 0)
    8000107a:	03459793          	slli	a5,a1,0x34
    8000107e:	eba1                	bnez	a5,800010ce <mappages+0x6a>
    80001080:	8a2a                	mv	s4,a0
    80001082:	8aba                	mv	s5,a4
    panic("mappages: va not aligned");

  if((size % PGSIZE) != 0)
    80001084:	03461793          	slli	a5,a2,0x34
    80001088:	eba9                	bnez	a5,800010da <mappages+0x76>
    panic("mappages: size not aligned");

  if(size == 0)
    8000108a:	ce31                	beqz	a2,800010e6 <mappages+0x82>
    panic("mappages: size");
  
  a = va;
  last = va + size - PGSIZE;
    8000108c:	80060613          	addi	a2,a2,-2048 # 800 <_entry-0x7ffff800>
    80001090:	80060613          	addi	a2,a2,-2048
    80001094:	00b60933          	add	s2,a2,a1
  a = va;
    80001098:	84ae                	mv	s1,a1
  for(;;){
    if((pte = walk(pagetable, a, 1)) == 0)
    8000109a:	4b05                	li	s6,1
    8000109c:	40b689b3          	sub	s3,a3,a1
    if(*pte & PTE_V)
      panic("mappages: remap");
    *pte = PA2PTE(pa) | perm | PTE_V;
    if(a == last)
      break;
    a += PGSIZE;
    800010a0:	6b85                	lui	s7,0x1
    if((pte = walk(pagetable, a, 1)) == 0)
    800010a2:	865a                	mv	a2,s6
    800010a4:	85a6                	mv	a1,s1
    800010a6:	8552                	mv	a0,s4
    800010a8:	ee9ff0ef          	jal	80000f90 <walk>
    800010ac:	c929                	beqz	a0,800010fe <mappages+0x9a>
    if(*pte & PTE_V)
    800010ae:	611c                	ld	a5,0(a0)
    800010b0:	8b85                	andi	a5,a5,1
    800010b2:	e3a1                	bnez	a5,800010f2 <mappages+0x8e>
    *pte = PA2PTE(pa) | perm | PTE_V;
    800010b4:	013487b3          	add	a5,s1,s3
    800010b8:	83b1                	srli	a5,a5,0xc
    800010ba:	07aa                	slli	a5,a5,0xa
    800010bc:	0157e7b3          	or	a5,a5,s5
    800010c0:	0017e793          	ori	a5,a5,1
    800010c4:	e11c                	sd	a5,0(a0)
    if(a == last)
    800010c6:	05248863          	beq	s1,s2,80001116 <mappages+0xb2>
    a += PGSIZE;
    800010ca:	94de                	add	s1,s1,s7
    if((pte = walk(pagetable, a, 1)) == 0)
    800010cc:	bfd9                	j	800010a2 <mappages+0x3e>
    panic("mappages: va not aligned");
    800010ce:	00008517          	auipc	a0,0x8
    800010d2:	fea50513          	addi	a0,a0,-22 # 800090b8 <etext+0xb8>
    800010d6:	f4eff0ef          	jal	80000824 <panic>
    panic("mappages: size not aligned");
    800010da:	00008517          	auipc	a0,0x8
    800010de:	ffe50513          	addi	a0,a0,-2 # 800090d8 <etext+0xd8>
    800010e2:	f42ff0ef          	jal	80000824 <panic>
    panic("mappages: size");
    800010e6:	00008517          	auipc	a0,0x8
    800010ea:	01250513          	addi	a0,a0,18 # 800090f8 <etext+0xf8>
    800010ee:	f36ff0ef          	jal	80000824 <panic>
      panic("mappages: remap");
    800010f2:	00008517          	auipc	a0,0x8
    800010f6:	01650513          	addi	a0,a0,22 # 80009108 <etext+0x108>
    800010fa:	f2aff0ef          	jal	80000824 <panic>
      return -1;
    800010fe:	557d                	li	a0,-1
    pa += PGSIZE;
  }
  return 0;
}
    80001100:	60a6                	ld	ra,72(sp)
    80001102:	6406                	ld	s0,64(sp)
    80001104:	74e2                	ld	s1,56(sp)
    80001106:	7942                	ld	s2,48(sp)
    80001108:	79a2                	ld	s3,40(sp)
    8000110a:	7a02                	ld	s4,32(sp)
    8000110c:	6ae2                	ld	s5,24(sp)
    8000110e:	6b42                	ld	s6,16(sp)
    80001110:	6ba2                	ld	s7,8(sp)
    80001112:	6161                	addi	sp,sp,80
    80001114:	8082                	ret
  return 0;
    80001116:	4501                	li	a0,0
    80001118:	b7e5                	j	80001100 <mappages+0x9c>

000000008000111a <kvmmap>:
{
    8000111a:	1141                	addi	sp,sp,-16
    8000111c:	e406                	sd	ra,8(sp)
    8000111e:	e022                	sd	s0,0(sp)
    80001120:	0800                	addi	s0,sp,16
    80001122:	87b6                	mv	a5,a3
  if(mappages(kpgtbl, va, sz, pa, perm) != 0)
    80001124:	86b2                	mv	a3,a2
    80001126:	863e                	mv	a2,a5
    80001128:	f3dff0ef          	jal	80001064 <mappages>
    8000112c:	e509                	bnez	a0,80001136 <kvmmap+0x1c>
}
    8000112e:	60a2                	ld	ra,8(sp)
    80001130:	6402                	ld	s0,0(sp)
    80001132:	0141                	addi	sp,sp,16
    80001134:	8082                	ret
    panic("kvmmap");
    80001136:	00008517          	auipc	a0,0x8
    8000113a:	fe250513          	addi	a0,a0,-30 # 80009118 <etext+0x118>
    8000113e:	ee6ff0ef          	jal	80000824 <panic>

0000000080001142 <kvmmake>:
{
    80001142:	1101                	addi	sp,sp,-32
    80001144:	ec06                	sd	ra,24(sp)
    80001146:	e822                	sd	s0,16(sp)
    80001148:	e426                	sd	s1,8(sp)
    8000114a:	1000                	addi	s0,sp,32
  kpgtbl = (pagetable_t) kalloc();
    8000114c:	9fdff0ef          	jal	80000b48 <kalloc>
    80001150:	84aa                	mv	s1,a0
  memset(kpgtbl, 0, PGSIZE);
    80001152:	6605                	lui	a2,0x1
    80001154:	4581                	li	a1,0
    80001156:	ba7ff0ef          	jal	80000cfc <memset>
  kvmmap(kpgtbl, UART0, UART0, PGSIZE, PTE_R | PTE_W);
    8000115a:	4719                	li	a4,6
    8000115c:	6685                	lui	a3,0x1
    8000115e:	10000637          	lui	a2,0x10000
    80001162:	85b2                	mv	a1,a2
    80001164:	8526                	mv	a0,s1
    80001166:	fb5ff0ef          	jal	8000111a <kvmmap>
  kvmmap(kpgtbl, VIRTIO0, VIRTIO0, PGSIZE, PTE_R | PTE_W);
    8000116a:	4719                	li	a4,6
    8000116c:	6685                	lui	a3,0x1
    8000116e:	10001637          	lui	a2,0x10001
    80001172:	85b2                	mv	a1,a2
    80001174:	8526                	mv	a0,s1
    80001176:	fa5ff0ef          	jal	8000111a <kvmmap>
  kvmmap(kpgtbl, PLIC, PLIC, 0x4000000, PTE_R | PTE_W);
    8000117a:	4719                	li	a4,6
    8000117c:	040006b7          	lui	a3,0x4000
    80001180:	0c000637          	lui	a2,0xc000
    80001184:	85b2                	mv	a1,a2
    80001186:	8526                	mv	a0,s1
    80001188:	f93ff0ef          	jal	8000111a <kvmmap>
  kvmmap(kpgtbl, KERNBASE, KERNBASE, (uint64)etext-KERNBASE, PTE_R | PTE_X);
    8000118c:	4729                	li	a4,10
    8000118e:	80008697          	auipc	a3,0x80008
    80001192:	e7268693          	addi	a3,a3,-398 # 9000 <_entry-0x7fff7000>
    80001196:	4605                	li	a2,1
    80001198:	067e                	slli	a2,a2,0x1f
    8000119a:	85b2                	mv	a1,a2
    8000119c:	8526                	mv	a0,s1
    8000119e:	f7dff0ef          	jal	8000111a <kvmmap>
  kvmmap(kpgtbl, (uint64)etext, (uint64)etext, PHYSTOP-(uint64)etext, PTE_R | PTE_W);
    800011a2:	4719                	li	a4,6
    800011a4:	00008697          	auipc	a3,0x8
    800011a8:	e5c68693          	addi	a3,a3,-420 # 80009000 <etext>
    800011ac:	10100793          	li	a5,257
    800011b0:	07de                	slli	a5,a5,0x17
    800011b2:	40d786b3          	sub	a3,a5,a3
    800011b6:	00008617          	auipc	a2,0x8
    800011ba:	e4a60613          	addi	a2,a2,-438 # 80009000 <etext>
    800011be:	85b2                	mv	a1,a2
    800011c0:	8526                	mv	a0,s1
    800011c2:	f59ff0ef          	jal	8000111a <kvmmap>
  kvmmap(kpgtbl, TRAMPOLINE, (uint64)trampoline, PGSIZE, PTE_R | PTE_X);
    800011c6:	4729                	li	a4,10
    800011c8:	6685                	lui	a3,0x1
    800011ca:	00007617          	auipc	a2,0x7
    800011ce:	e3660613          	addi	a2,a2,-458 # 80008000 <_trampoline>
    800011d2:	040005b7          	lui	a1,0x4000
    800011d6:	15fd                	addi	a1,a1,-1 # 3ffffff <_entry-0x7c000001>
    800011d8:	05b2                	slli	a1,a1,0xc
    800011da:	8526                	mv	a0,s1
    800011dc:	f3fff0ef          	jal	8000111a <kvmmap>
  proc_mapstacks(kpgtbl);
    800011e0:	8526                	mv	a0,s1
    800011e2:	2c9010ef          	jal	80002caa <proc_mapstacks>
}
    800011e6:	8526                	mv	a0,s1
    800011e8:	60e2                	ld	ra,24(sp)
    800011ea:	6442                	ld	s0,16(sp)
    800011ec:	64a2                	ld	s1,8(sp)
    800011ee:	6105                	addi	sp,sp,32
    800011f0:	8082                	ret

00000000800011f2 <kvminit>:
{
    800011f2:	1141                	addi	sp,sp,-16
    800011f4:	e406                	sd	ra,8(sp)
    800011f6:	e022                	sd	s0,0(sp)
    800011f8:	0800                	addi	s0,sp,16
  kernel_pagetable = kvmmake();
    800011fa:	f49ff0ef          	jal	80001142 <kvmmake>
    800011fe:	0000c797          	auipc	a5,0xc
    80001202:	1aa7bd23          	sd	a0,442(a5) # 8000d3b8 <kernel_pagetable>
}
    80001206:	60a2                	ld	ra,8(sp)
    80001208:	6402                	ld	s0,0(sp)
    8000120a:	0141                	addi	sp,sp,16
    8000120c:	8082                	ret

000000008000120e <uvmcreate>:

// create an empty user page table.
// returns 0 if out of memory.
pagetable_t
uvmcreate()
{
    8000120e:	1101                	addi	sp,sp,-32
    80001210:	ec06                	sd	ra,24(sp)
    80001212:	e822                	sd	s0,16(sp)
    80001214:	e426                	sd	s1,8(sp)
    80001216:	1000                	addi	s0,sp,32
  pagetable_t pagetable;
  pagetable = (pagetable_t) kalloc();
    80001218:	931ff0ef          	jal	80000b48 <kalloc>
    8000121c:	84aa                	mv	s1,a0
  if(pagetable == 0)
    8000121e:	c509                	beqz	a0,80001228 <uvmcreate+0x1a>
    return 0;
  memset(pagetable, 0, PGSIZE);
    80001220:	6605                	lui	a2,0x1
    80001222:	4581                	li	a1,0
    80001224:	ad9ff0ef          	jal	80000cfc <memset>
  return pagetable;
}
    80001228:	8526                	mv	a0,s1
    8000122a:	60e2                	ld	ra,24(sp)
    8000122c:	6442                	ld	s0,16(sp)
    8000122e:	64a2                	ld	s1,8(sp)
    80001230:	6105                	addi	sp,sp,32
    80001232:	8082                	ret

0000000080001234 <uvmunmap>:
// Remove npages of mappings starting from va. va must be
// page-aligned. It's OK if the mappings don't exist.
// Optionally free the physical memory.
void
uvmunmap(pagetable_t pagetable, uint64 va, uint64 npages, int do_free)
{
    80001234:	7139                	addi	sp,sp,-64
    80001236:	fc06                	sd	ra,56(sp)
    80001238:	f822                	sd	s0,48(sp)
    8000123a:	0080                	addi	s0,sp,64
  uint64 a;
  pte_t *pte;

  if((va % PGSIZE) != 0)
    8000123c:	03459793          	slli	a5,a1,0x34
    80001240:	e38d                	bnez	a5,80001262 <uvmunmap+0x2e>
    80001242:	f04a                	sd	s2,32(sp)
    80001244:	ec4e                	sd	s3,24(sp)
    80001246:	e852                	sd	s4,16(sp)
    80001248:	e456                	sd	s5,8(sp)
    8000124a:	e05a                	sd	s6,0(sp)
    8000124c:	8a2a                	mv	s4,a0
    8000124e:	892e                	mv	s2,a1
    80001250:	8ab6                	mv	s5,a3
    panic("uvmunmap: not aligned");

  for(a = va; a < va + npages*PGSIZE; a += PGSIZE){
    80001252:	0632                	slli	a2,a2,0xc
    80001254:	00b609b3          	add	s3,a2,a1
    80001258:	6b05                	lui	s6,0x1
    8000125a:	0535f963          	bgeu	a1,s3,800012ac <uvmunmap+0x78>
    8000125e:	f426                	sd	s1,40(sp)
    80001260:	a015                	j	80001284 <uvmunmap+0x50>
    80001262:	f426                	sd	s1,40(sp)
    80001264:	f04a                	sd	s2,32(sp)
    80001266:	ec4e                	sd	s3,24(sp)
    80001268:	e852                	sd	s4,16(sp)
    8000126a:	e456                	sd	s5,8(sp)
    8000126c:	e05a                	sd	s6,0(sp)
    panic("uvmunmap: not aligned");
    8000126e:	00008517          	auipc	a0,0x8
    80001272:	eb250513          	addi	a0,a0,-334 # 80009120 <etext+0x120>
    80001276:	daeff0ef          	jal	80000824 <panic>
      continue;
    if(do_free){
      uint64 pa = PTE2PA(*pte);
      kfree((void*)pa);
    }
    *pte = 0;
    8000127a:	0004b023          	sd	zero,0(s1)
  for(a = va; a < va + npages*PGSIZE; a += PGSIZE){
    8000127e:	995a                	add	s2,s2,s6
    80001280:	03397563          	bgeu	s2,s3,800012aa <uvmunmap+0x76>
    if((pte = walk(pagetable, a, 0)) == 0) // leaf page table entry allocated?
    80001284:	4601                	li	a2,0
    80001286:	85ca                	mv	a1,s2
    80001288:	8552                	mv	a0,s4
    8000128a:	d07ff0ef          	jal	80000f90 <walk>
    8000128e:	84aa                	mv	s1,a0
    80001290:	d57d                	beqz	a0,8000127e <uvmunmap+0x4a>
    if((*pte & PTE_V) == 0)  // has physical page been allocated?
    80001292:	611c                	ld	a5,0(a0)
    80001294:	0017f713          	andi	a4,a5,1
    80001298:	d37d                	beqz	a4,8000127e <uvmunmap+0x4a>
    if(do_free){
    8000129a:	fe0a80e3          	beqz	s5,8000127a <uvmunmap+0x46>
      uint64 pa = PTE2PA(*pte);
    8000129e:	83a9                	srli	a5,a5,0xa
      kfree((void*)pa);
    800012a0:	00c79513          	slli	a0,a5,0xc
    800012a4:	fb8ff0ef          	jal	80000a5c <kfree>
    800012a8:	bfc9                	j	8000127a <uvmunmap+0x46>
    800012aa:	74a2                	ld	s1,40(sp)
    800012ac:	7902                	ld	s2,32(sp)
    800012ae:	69e2                	ld	s3,24(sp)
    800012b0:	6a42                	ld	s4,16(sp)
    800012b2:	6aa2                	ld	s5,8(sp)
    800012b4:	6b02                	ld	s6,0(sp)
  }
}
    800012b6:	70e2                	ld	ra,56(sp)
    800012b8:	7442                	ld	s0,48(sp)
    800012ba:	6121                	addi	sp,sp,64
    800012bc:	8082                	ret

00000000800012be <uvmdealloc>:
// newsz.  oldsz and newsz need not be page-aligned, nor does newsz
// need to be less than oldsz.  oldsz can be larger than the actual
// process size.  Returns the new process size.
uint64
uvmdealloc(pagetable_t pagetable, uint64 oldsz, uint64 newsz)
{
    800012be:	7139                	addi	sp,sp,-64
    800012c0:	fc06                	sd	ra,56(sp)
    800012c2:	f822                	sd	s0,48(sp)
    800012c4:	f04a                	sd	s2,32(sp)
    800012c6:	e852                	sd	s4,16(sp)
    800012c8:	e456                	sd	s5,8(sp)
    800012ca:	0080                	addi	s0,sp,64
    800012cc:	8aaa                	mv	s5,a0
    800012ce:	892e                	mv	s2,a1
    800012d0:	8a32                	mv	s4,a2
  struct proc *p = myproc();
    800012d2:	373010ef          	jal	80002e44 <myproc>
  
  if(newsz >= oldsz)
    800012d6:	0d2a7963          	bgeu	s4,s2,800013a8 <uvmdealloc+0xea>
    800012da:	f426                	sd	s1,40(sp)
    800012dc:	ec4e                	sd	s3,24(sp)
    800012de:	89aa                	mv	s3,a0
    return oldsz;

  if(PGROUNDUP(newsz) < PGROUNDUP(oldsz)){
    800012e0:	6785                	lui	a5,0x1
    800012e2:	17fd                	addi	a5,a5,-1 # fff <_entry-0x7ffff001>
    800012e4:	00fa04b3          	add	s1,s4,a5
    800012e8:	777d                	lui	a4,0xfffff
    800012ea:	8cf9                	and	s1,s1,a4
    800012ec:	993e                	add	s2,s2,a5
    800012ee:	00e97933          	and	s2,s2,a4
    800012f2:	0124ec63          	bltu	s1,s2,8000130a <uvmdealloc+0x4c>
    800012f6:	74a2                	ld	s1,40(sp)
    800012f8:	69e2                	ld	s3,24(sp)
      }
    }
  }

  return newsz;
}
    800012fa:	8552                	mv	a0,s4
    800012fc:	70e2                	ld	ra,56(sp)
    800012fe:	7442                	ld	s0,48(sp)
    80001300:	7902                	ld	s2,32(sp)
    80001302:	6a42                	ld	s4,16(sp)
    80001304:	6aa2                	ld	s5,8(sp)
    80001306:	6121                	addi	sp,sp,64
    80001308:	8082                	ret
    int npages = (PGROUNDUP(oldsz) - PGROUNDUP(newsz)) / PGSIZE;
    8000130a:	40990633          	sub	a2,s2,s1
    8000130e:	8231                	srli	a2,a2,0xc
    uvmunmap(pagetable, PGROUNDUP(newsz), npages, 1);
    80001310:	4685                	li	a3,1
    80001312:	2601                	sext.w	a2,a2
    80001314:	85a6                	mv	a1,s1
    80001316:	8556                	mv	a0,s5
    80001318:	f1dff0ef          	jal	80001234 <uvmunmap>
    if(p) {
    8000131c:	08098863          	beqz	s3,800013ac <uvmdealloc+0xee>
        for(int i = 0; i < MAX_RESIDENT_PAGES; i++) {
    80001320:	04000593          	li	a1,64
            p->num_resident_pages--;
    80001324:	6505                	lui	a0,0x1
    80001326:	00a988b3          	add	a7,s3,a0
    8000132a:	c4850313          	addi	t1,a0,-952 # c48 <_entry-0x7ffff3b8>
        for(int i = 0; i < MAX_SWAP_PAGES; i++) {
    8000132e:	40000613          	li	a2,1024
            p->num_swapped_pages--;
    80001332:	682d                	lui	a6,0xb
    80001334:	984e                	add	a6,a6,s3
    80001336:	a0ad                	j	800013a0 <uvmdealloc+0xe2>
        for(int i = 0; i < MAX_RESIDENT_PAGES; i++) {
    80001338:	2705                	addiw	a4,a4,1 # fffffffffffff001 <end+0xffffffff7fd2b529>
    8000133a:	02878793          	addi	a5,a5,40
    8000133e:	02b70363          	beq	a4,a1,80001364 <uvmdealloc+0xa6>
          if(p->resident_pages[i].in_use && p->resident_pages[i].va == va) {
    80001342:	4bd4                	lw	a3,20(a5)
    80001344:	daf5                	beqz	a3,80001338 <uvmdealloc+0x7a>
    80001346:	6394                	ld	a3,0(a5)
    80001348:	fe9698e3          	bne	a3,s1,80001338 <uvmdealloc+0x7a>
            p->resident_pages[i].in_use = 0;
    8000134c:	00271793          	slli	a5,a4,0x2
    80001350:	97ba                	add	a5,a5,a4
    80001352:	078e                	slli	a5,a5,0x3
    80001354:	97ce                	add	a5,a5,s3
    80001356:	1a07aa23          	sw	zero,436(a5)
            p->num_resident_pages--;
    8000135a:	ba08a783          	lw	a5,-1120(a7)
    8000135e:	37fd                	addiw	a5,a5,-1
    80001360:	baf8a023          	sw	a5,-1120(a7)
        for(int i = 0; i < MAX_SWAP_PAGES; i++) {
    80001364:	006987b3          	add	a5,s3,t1
    80001368:	4701                	li	a4,0
    8000136a:	a031                	j	80001376 <uvmdealloc+0xb8>
    8000136c:	2705                	addiw	a4,a4,1
    8000136e:	02878793          	addi	a5,a5,40
    80001372:	02c70463          	beq	a4,a2,8000139a <uvmdealloc+0xdc>
          if(p->swapped_pages[i].in_use && p->swapped_pages[i].va == va) {
    80001376:	4bd4                	lw	a3,20(a5)
    80001378:	daf5                	beqz	a3,8000136c <uvmdealloc+0xae>
    8000137a:	6394                	ld	a3,0(a5)
    8000137c:	fe9698e3          	bne	a3,s1,8000136c <uvmdealloc+0xae>
            p->swapped_pages[i].in_use = 0;
    80001380:	00271793          	slli	a5,a4,0x2
    80001384:	97ba                	add	a5,a5,a4
    80001386:	078e                	slli	a5,a5,0x3
    80001388:	97ce                	add	a5,a5,s3
    8000138a:	97aa                	add	a5,a5,a0
    8000138c:	c407ae23          	sw	zero,-932(a5)
            p->num_swapped_pages--;
    80001390:	c4882783          	lw	a5,-952(a6) # ac48 <_entry-0x7fff53b8>
    80001394:	37fd                	addiw	a5,a5,-1
    80001396:	c4f82423          	sw	a5,-952(a6)
      for(va = PGROUNDUP(newsz); va < PGROUNDUP(oldsz); va += PGSIZE) {
    8000139a:	94aa                	add	s1,s1,a0
    8000139c:	0124fb63          	bgeu	s1,s2,800013b2 <uvmdealloc+0xf4>
        for(int i = 0; i < MAX_RESIDENT_PAGES; i++) {
    800013a0:	1a098793          	addi	a5,s3,416
    800013a4:	4701                	li	a4,0
    800013a6:	bf71                	j	80001342 <uvmdealloc+0x84>
    return oldsz;
    800013a8:	8a4a                	mv	s4,s2
    800013aa:	bf81                	j	800012fa <uvmdealloc+0x3c>
    800013ac:	74a2                	ld	s1,40(sp)
    800013ae:	69e2                	ld	s3,24(sp)
    800013b0:	b7a9                	j	800012fa <uvmdealloc+0x3c>
    800013b2:	74a2                	ld	s1,40(sp)
    800013b4:	69e2                	ld	s3,24(sp)
    800013b6:	b791                	j	800012fa <uvmdealloc+0x3c>

00000000800013b8 <uvmalloc>:
  if(newsz < oldsz)
    800013b8:	0ab66163          	bltu	a2,a1,8000145a <uvmalloc+0xa2>
{
    800013bc:	715d                	addi	sp,sp,-80
    800013be:	e486                	sd	ra,72(sp)
    800013c0:	e0a2                	sd	s0,64(sp)
    800013c2:	f84a                	sd	s2,48(sp)
    800013c4:	f052                	sd	s4,32(sp)
    800013c6:	ec56                	sd	s5,24(sp)
    800013c8:	e45e                	sd	s7,8(sp)
    800013ca:	0880                	addi	s0,sp,80
    800013cc:	8aaa                	mv	s5,a0
    800013ce:	8a32                	mv	s4,a2
  oldsz = PGROUNDUP(oldsz);
    800013d0:	6785                	lui	a5,0x1
    800013d2:	17fd                	addi	a5,a5,-1 # fff <_entry-0x7ffff001>
    800013d4:	95be                	add	a1,a1,a5
    800013d6:	77fd                	lui	a5,0xfffff
    800013d8:	00f5f933          	and	s2,a1,a5
    800013dc:	8bca                	mv	s7,s2
  for(a = oldsz; a < newsz; a += PGSIZE){
    800013de:	08c97063          	bgeu	s2,a2,8000145e <uvmalloc+0xa6>
    800013e2:	fc26                	sd	s1,56(sp)
    800013e4:	f44e                	sd	s3,40(sp)
    800013e6:	e85a                	sd	s6,16(sp)
    memset(mem, 0, PGSIZE);
    800013e8:	6985                	lui	s3,0x1
    if(mappages(pagetable, a, PGSIZE, (uint64)mem, PTE_R|PTE_U|xperm) != 0){
    800013ea:	0126eb13          	ori	s6,a3,18
    mem = kalloc();
    800013ee:	f5aff0ef          	jal	80000b48 <kalloc>
    800013f2:	84aa                	mv	s1,a0
    if(mem == 0){
    800013f4:	c50d                	beqz	a0,8000141e <uvmalloc+0x66>
    memset(mem, 0, PGSIZE);
    800013f6:	864e                	mv	a2,s3
    800013f8:	4581                	li	a1,0
    800013fa:	903ff0ef          	jal	80000cfc <memset>
    if(mappages(pagetable, a, PGSIZE, (uint64)mem, PTE_R|PTE_U|xperm) != 0){
    800013fe:	875a                	mv	a4,s6
    80001400:	86a6                	mv	a3,s1
    80001402:	864e                	mv	a2,s3
    80001404:	85ca                	mv	a1,s2
    80001406:	8556                	mv	a0,s5
    80001408:	c5dff0ef          	jal	80001064 <mappages>
    8000140c:	e915                	bnez	a0,80001440 <uvmalloc+0x88>
  for(a = oldsz; a < newsz; a += PGSIZE){
    8000140e:	994e                	add	s2,s2,s3
    80001410:	fd496fe3          	bltu	s2,s4,800013ee <uvmalloc+0x36>
  return newsz;
    80001414:	8552                	mv	a0,s4
    80001416:	74e2                	ld	s1,56(sp)
    80001418:	79a2                	ld	s3,40(sp)
    8000141a:	6b42                	ld	s6,16(sp)
    8000141c:	a811                	j	80001430 <uvmalloc+0x78>
      uvmdealloc(pagetable, a, oldsz);
    8000141e:	865e                	mv	a2,s7
    80001420:	85ca                	mv	a1,s2
    80001422:	8556                	mv	a0,s5
    80001424:	e9bff0ef          	jal	800012be <uvmdealloc>
      return 0;
    80001428:	4501                	li	a0,0
    8000142a:	74e2                	ld	s1,56(sp)
    8000142c:	79a2                	ld	s3,40(sp)
    8000142e:	6b42                	ld	s6,16(sp)
}
    80001430:	60a6                	ld	ra,72(sp)
    80001432:	6406                	ld	s0,64(sp)
    80001434:	7942                	ld	s2,48(sp)
    80001436:	7a02                	ld	s4,32(sp)
    80001438:	6ae2                	ld	s5,24(sp)
    8000143a:	6ba2                	ld	s7,8(sp)
    8000143c:	6161                	addi	sp,sp,80
    8000143e:	8082                	ret
      kfree(mem);
    80001440:	8526                	mv	a0,s1
    80001442:	e1aff0ef          	jal	80000a5c <kfree>
      uvmdealloc(pagetable, a, oldsz);
    80001446:	865e                	mv	a2,s7
    80001448:	85ca                	mv	a1,s2
    8000144a:	8556                	mv	a0,s5
    8000144c:	e73ff0ef          	jal	800012be <uvmdealloc>
      return 0;
    80001450:	4501                	li	a0,0
    80001452:	74e2                	ld	s1,56(sp)
    80001454:	79a2                	ld	s3,40(sp)
    80001456:	6b42                	ld	s6,16(sp)
    80001458:	bfe1                	j	80001430 <uvmalloc+0x78>
    return oldsz;
    8000145a:	852e                	mv	a0,a1
}
    8000145c:	8082                	ret
  return newsz;
    8000145e:	8532                	mv	a0,a2
    80001460:	bfc1                	j	80001430 <uvmalloc+0x78>

0000000080001462 <freewalk>:

// Recursively free page-table pages.
// All leaf mappings must already have been removed.
void
freewalk(pagetable_t pagetable)
{
    80001462:	7179                	addi	sp,sp,-48
    80001464:	f406                	sd	ra,40(sp)
    80001466:	f022                	sd	s0,32(sp)
    80001468:	ec26                	sd	s1,24(sp)
    8000146a:	e84a                	sd	s2,16(sp)
    8000146c:	e44e                	sd	s3,8(sp)
    8000146e:	e052                	sd	s4,0(sp)
    80001470:	1800                	addi	s0,sp,48
    80001472:	8a2a                	mv	s4,a0
  // there are 2^9 = 512 PTEs in a page table.
  for(int i = 0; i < 512; i++){
    80001474:	84aa                	mv	s1,a0
    80001476:	6985                	lui	s3,0x1
    80001478:	99aa                	add	s3,s3,a0
    8000147a:	a811                	j	8000148e <freewalk+0x2c>
      freewalk((pagetable_t)child);
      pagetable[i] = 0;
    } else if(pte & PTE_V){
      // This is a leaf PTE - in demand paging, this can happen
      // if exec fails after allocating pages. Clean it up.
      uint64 pa = PTE2PA(pte);
    8000147c:	8129                	srli	a0,a0,0xa
      kfree((void*)pa);  // Free the physical page
    8000147e:	0532                	slli	a0,a0,0xc
    80001480:	ddcff0ef          	jal	80000a5c <kfree>
      pagetable[i] = 0;  // Clear the PTE
    80001484:	0004b023          	sd	zero,0(s1)
  for(int i = 0; i < 512; i++){
    80001488:	04a1                	addi	s1,s1,8
    8000148a:	03348063          	beq	s1,s3,800014aa <freewalk+0x48>
    pte_t pte = pagetable[i];
    8000148e:	6088                	ld	a0,0(s1)
    if((pte & PTE_V) && (pte & (PTE_R|PTE_W|PTE_X)) == 0){
    80001490:	00157793          	andi	a5,a0,1
    80001494:	dbf5                	beqz	a5,80001488 <freewalk+0x26>
    80001496:	00e57793          	andi	a5,a0,14
    8000149a:	f3ed                	bnez	a5,8000147c <freewalk+0x1a>
      uint64 child = PTE2PA(pte);
    8000149c:	8129                	srli	a0,a0,0xa
      freewalk((pagetable_t)child);
    8000149e:	0532                	slli	a0,a0,0xc
    800014a0:	fc3ff0ef          	jal	80001462 <freewalk>
      pagetable[i] = 0;
    800014a4:	0004b023          	sd	zero,0(s1)
    if((pte & PTE_V) && (pte & (PTE_R|PTE_W|PTE_X)) == 0){
    800014a8:	b7c5                	j	80001488 <freewalk+0x26>
    }
  }
  kfree((void*)pagetable);
    800014aa:	8552                	mv	a0,s4
    800014ac:	db0ff0ef          	jal	80000a5c <kfree>
}
    800014b0:	70a2                	ld	ra,40(sp)
    800014b2:	7402                	ld	s0,32(sp)
    800014b4:	64e2                	ld	s1,24(sp)
    800014b6:	6942                	ld	s2,16(sp)
    800014b8:	69a2                	ld	s3,8(sp)
    800014ba:	6a02                	ld	s4,0(sp)
    800014bc:	6145                	addi	sp,sp,48
    800014be:	8082                	ret

00000000800014c0 <uvmfree>:

// Free user memory pages,
// then free page-table pages.
void
uvmfree(pagetable_t pagetable, uint64 sz)
{
    800014c0:	1101                	addi	sp,sp,-32
    800014c2:	ec06                	sd	ra,24(sp)
    800014c4:	e822                	sd	s0,16(sp)
    800014c6:	e426                	sd	s1,8(sp)
    800014c8:	1000                	addi	s0,sp,32
    800014ca:	84aa                	mv	s1,a0
  if(sz > 0)
    800014cc:	e989                	bnez	a1,800014de <uvmfree+0x1e>
    uvmunmap(pagetable, 0, PGROUNDUP(sz)/PGSIZE, 1);
  freewalk(pagetable);
    800014ce:	8526                	mv	a0,s1
    800014d0:	f93ff0ef          	jal	80001462 <freewalk>
}
    800014d4:	60e2                	ld	ra,24(sp)
    800014d6:	6442                	ld	s0,16(sp)
    800014d8:	64a2                	ld	s1,8(sp)
    800014da:	6105                	addi	sp,sp,32
    800014dc:	8082                	ret
    uvmunmap(pagetable, 0, PGROUNDUP(sz)/PGSIZE, 1);
    800014de:	6785                	lui	a5,0x1
    800014e0:	17fd                	addi	a5,a5,-1 # fff <_entry-0x7ffff001>
    800014e2:	95be                	add	a1,a1,a5
    800014e4:	4685                	li	a3,1
    800014e6:	00c5d613          	srli	a2,a1,0xc
    800014ea:	4581                	li	a1,0
    800014ec:	d49ff0ef          	jal	80001234 <uvmunmap>
    800014f0:	bff9                	j	800014ce <uvmfree+0xe>

00000000800014f2 <uvmcopy>:
  pte_t *pte;
  uint64 pa, i;
  uint flags;
  char *mem;

  for(i = 0; i < sz; i += PGSIZE){
    800014f2:	ca59                	beqz	a2,80001588 <uvmcopy+0x96>
{
    800014f4:	715d                	addi	sp,sp,-80
    800014f6:	e486                	sd	ra,72(sp)
    800014f8:	e0a2                	sd	s0,64(sp)
    800014fa:	fc26                	sd	s1,56(sp)
    800014fc:	f84a                	sd	s2,48(sp)
    800014fe:	f44e                	sd	s3,40(sp)
    80001500:	f052                	sd	s4,32(sp)
    80001502:	ec56                	sd	s5,24(sp)
    80001504:	e85a                	sd	s6,16(sp)
    80001506:	e45e                	sd	s7,8(sp)
    80001508:	0880                	addi	s0,sp,80
    8000150a:	8b2a                	mv	s6,a0
    8000150c:	8bae                	mv	s7,a1
    8000150e:	8ab2                	mv	s5,a2
  for(i = 0; i < sz; i += PGSIZE){
    80001510:	4481                	li	s1,0
      continue;   // physical page hasn't been allocated
    pa = PTE2PA(*pte);
    flags = PTE_FLAGS(*pte);
    if((mem = kalloc()) == 0)
      goto err;
    memmove(mem, (char*)pa, PGSIZE);
    80001512:	6a05                	lui	s4,0x1
    80001514:	a021                	j	8000151c <uvmcopy+0x2a>
  for(i = 0; i < sz; i += PGSIZE){
    80001516:	94d2                	add	s1,s1,s4
    80001518:	0554fc63          	bgeu	s1,s5,80001570 <uvmcopy+0x7e>
    if((pte = walk(old, i, 0)) == 0)
    8000151c:	4601                	li	a2,0
    8000151e:	85a6                	mv	a1,s1
    80001520:	855a                	mv	a0,s6
    80001522:	a6fff0ef          	jal	80000f90 <walk>
    80001526:	d965                	beqz	a0,80001516 <uvmcopy+0x24>
    if((*pte & PTE_V) == 0)
    80001528:	00053983          	ld	s3,0(a0)
    8000152c:	0019f793          	andi	a5,s3,1
    80001530:	d3fd                	beqz	a5,80001516 <uvmcopy+0x24>
    if((mem = kalloc()) == 0)
    80001532:	e16ff0ef          	jal	80000b48 <kalloc>
    80001536:	892a                	mv	s2,a0
    80001538:	c11d                	beqz	a0,8000155e <uvmcopy+0x6c>
    pa = PTE2PA(*pte);
    8000153a:	00a9d593          	srli	a1,s3,0xa
    memmove(mem, (char*)pa, PGSIZE);
    8000153e:	8652                	mv	a2,s4
    80001540:	05b2                	slli	a1,a1,0xc
    80001542:	81bff0ef          	jal	80000d5c <memmove>
    if(mappages(new, i, PGSIZE, (uint64)mem, flags) != 0){
    80001546:	3ff9f713          	andi	a4,s3,1023
    8000154a:	86ca                	mv	a3,s2
    8000154c:	8652                	mv	a2,s4
    8000154e:	85a6                	mv	a1,s1
    80001550:	855e                	mv	a0,s7
    80001552:	b13ff0ef          	jal	80001064 <mappages>
    80001556:	d161                	beqz	a0,80001516 <uvmcopy+0x24>
      kfree(mem);
    80001558:	854a                	mv	a0,s2
    8000155a:	d02ff0ef          	jal	80000a5c <kfree>
    }
  }
  return 0;

 err:
  uvmunmap(new, 0, i / PGSIZE, 1);
    8000155e:	4685                	li	a3,1
    80001560:	00c4d613          	srli	a2,s1,0xc
    80001564:	4581                	li	a1,0
    80001566:	855e                	mv	a0,s7
    80001568:	ccdff0ef          	jal	80001234 <uvmunmap>
  return -1;
    8000156c:	557d                	li	a0,-1
    8000156e:	a011                	j	80001572 <uvmcopy+0x80>
  return 0;
    80001570:	4501                	li	a0,0
}
    80001572:	60a6                	ld	ra,72(sp)
    80001574:	6406                	ld	s0,64(sp)
    80001576:	74e2                	ld	s1,56(sp)
    80001578:	7942                	ld	s2,48(sp)
    8000157a:	79a2                	ld	s3,40(sp)
    8000157c:	7a02                	ld	s4,32(sp)
    8000157e:	6ae2                	ld	s5,24(sp)
    80001580:	6b42                	ld	s6,16(sp)
    80001582:	6ba2                	ld	s7,8(sp)
    80001584:	6161                	addi	sp,sp,80
    80001586:	8082                	ret
  return 0;
    80001588:	4501                	li	a0,0
}
    8000158a:	8082                	ret

000000008000158c <uvmclear>:

// mark a PTE invalid for user access.
// used by exec for the user stack guard page.
void
uvmclear(pagetable_t pagetable, uint64 va)
{
    8000158c:	1141                	addi	sp,sp,-16
    8000158e:	e406                	sd	ra,8(sp)
    80001590:	e022                	sd	s0,0(sp)
    80001592:	0800                	addi	s0,sp,16
  pte_t *pte;
  
  pte = walk(pagetable, va, 0);
    80001594:	4601                	li	a2,0
    80001596:	9fbff0ef          	jal	80000f90 <walk>
  if(pte == 0)
    8000159a:	c901                	beqz	a0,800015aa <uvmclear+0x1e>
    panic("uvmclear");
  *pte &= ~PTE_U;
    8000159c:	611c                	ld	a5,0(a0)
    8000159e:	9bbd                	andi	a5,a5,-17
    800015a0:	e11c                	sd	a5,0(a0)
}
    800015a2:	60a2                	ld	ra,8(sp)
    800015a4:	6402                	ld	s0,0(sp)
    800015a6:	0141                	addi	sp,sp,16
    800015a8:	8082                	ret
    panic("uvmclear");
    800015aa:	00008517          	auipc	a0,0x8
    800015ae:	b8e50513          	addi	a0,a0,-1138 # 80009138 <etext+0x138>
    800015b2:	a72ff0ef          	jal	80000824 <panic>

00000000800015b6 <copyinstr>:
copyinstr(pagetable_t pagetable, char *dst, uint64 srcva, uint64 max)
{
  uint64 n, va0, pa0;
  int got_null = 0;

  while(got_null == 0 && max > 0){
    800015b6:	cac5                	beqz	a3,80001666 <copyinstr+0xb0>
{
    800015b8:	715d                	addi	sp,sp,-80
    800015ba:	e486                	sd	ra,72(sp)
    800015bc:	e0a2                	sd	s0,64(sp)
    800015be:	fc26                	sd	s1,56(sp)
    800015c0:	f84a                	sd	s2,48(sp)
    800015c2:	f44e                	sd	s3,40(sp)
    800015c4:	f052                	sd	s4,32(sp)
    800015c6:	ec56                	sd	s5,24(sp)
    800015c8:	e85a                	sd	s6,16(sp)
    800015ca:	e45e                	sd	s7,8(sp)
    800015cc:	0880                	addi	s0,sp,80
    800015ce:	8aaa                	mv	s5,a0
    800015d0:	84ae                	mv	s1,a1
    800015d2:	8bb2                	mv	s7,a2
    800015d4:	89b6                	mv	s3,a3
    va0 = PGROUNDDOWN(srcva);
    800015d6:	7b7d                	lui	s6,0xfffff
    pa0 = walkaddr(pagetable, va0);
    if(pa0 == 0)
      return -1;
    n = PGSIZE - (srcva - va0);
    800015d8:	6a05                	lui	s4,0x1
    800015da:	a82d                	j	80001614 <copyinstr+0x5e>
      n = max;

    char *p = (char *) (pa0 + (srcva - va0));
    while(n > 0){
      if(*p == '\0'){
        *dst = '\0';
    800015dc:	00078023          	sb	zero,0(a5)
        got_null = 1;
    800015e0:	4785                	li	a5,1
      dst++;
    }

    srcva = va0 + PGSIZE;
  }
  if(got_null){
    800015e2:	0017c793          	xori	a5,a5,1
    800015e6:	40f0053b          	negw	a0,a5
    return 0;
  } else {
    return -1;
  }
}
    800015ea:	60a6                	ld	ra,72(sp)
    800015ec:	6406                	ld	s0,64(sp)
    800015ee:	74e2                	ld	s1,56(sp)
    800015f0:	7942                	ld	s2,48(sp)
    800015f2:	79a2                	ld	s3,40(sp)
    800015f4:	7a02                	ld	s4,32(sp)
    800015f6:	6ae2                	ld	s5,24(sp)
    800015f8:	6b42                	ld	s6,16(sp)
    800015fa:	6ba2                	ld	s7,8(sp)
    800015fc:	6161                	addi	sp,sp,80
    800015fe:	8082                	ret
    80001600:	fff98713          	addi	a4,s3,-1 # fff <_entry-0x7ffff001>
    80001604:	9726                	add	a4,a4,s1
      --max;
    80001606:	40b709b3          	sub	s3,a4,a1
    srcva = va0 + PGSIZE;
    8000160a:	01490bb3          	add	s7,s2,s4
  while(got_null == 0 && max > 0){
    8000160e:	04e58463          	beq	a1,a4,80001656 <copyinstr+0xa0>
{
    80001612:	84be                	mv	s1,a5
    va0 = PGROUNDDOWN(srcva);
    80001614:	016bf933          	and	s2,s7,s6
    pa0 = walkaddr(pagetable, va0);
    80001618:	85ca                	mv	a1,s2
    8000161a:	8556                	mv	a0,s5
    8000161c:	a0fff0ef          	jal	8000102a <walkaddr>
    if(pa0 == 0)
    80001620:	cd0d                	beqz	a0,8000165a <copyinstr+0xa4>
    n = PGSIZE - (srcva - va0);
    80001622:	417906b3          	sub	a3,s2,s7
    80001626:	96d2                	add	a3,a3,s4
    if(n > max)
    80001628:	00d9f363          	bgeu	s3,a3,8000162e <copyinstr+0x78>
    8000162c:	86ce                	mv	a3,s3
    while(n > 0){
    8000162e:	ca85                	beqz	a3,8000165e <copyinstr+0xa8>
    char *p = (char *) (pa0 + (srcva - va0));
    80001630:	01750633          	add	a2,a0,s7
    80001634:	41260633          	sub	a2,a2,s2
    80001638:	87a6                	mv	a5,s1
      if(*p == '\0'){
    8000163a:	8e05                	sub	a2,a2,s1
    while(n > 0){
    8000163c:	96a6                	add	a3,a3,s1
    8000163e:	85be                	mv	a1,a5
      if(*p == '\0'){
    80001640:	00f60733          	add	a4,a2,a5
    80001644:	00074703          	lbu	a4,0(a4)
    80001648:	db51                	beqz	a4,800015dc <copyinstr+0x26>
        *dst = *p;
    8000164a:	00e78023          	sb	a4,0(a5)
      dst++;
    8000164e:	0785                	addi	a5,a5,1
    while(n > 0){
    80001650:	fed797e3          	bne	a5,a3,8000163e <copyinstr+0x88>
    80001654:	b775                	j	80001600 <copyinstr+0x4a>
    80001656:	4781                	li	a5,0
    80001658:	b769                	j	800015e2 <copyinstr+0x2c>
      return -1;
    8000165a:	557d                	li	a0,-1
    8000165c:	b779                	j	800015ea <copyinstr+0x34>
    srcva = va0 + PGSIZE;
    8000165e:	6b85                	lui	s7,0x1
    80001660:	9bca                	add	s7,s7,s2
    80001662:	87a6                	mv	a5,s1
    80001664:	b77d                	j	80001612 <copyinstr+0x5c>
  int got_null = 0;
    80001666:	4781                	li	a5,0
  if(got_null){
    80001668:	0017c793          	xori	a5,a5,1
    8000166c:	40f0053b          	negw	a0,a5
}
    80001670:	8082                	ret

0000000080001672 <clear_resident_pages>:
}

//part1 - Clear all resident pages when exec starts (reset FIFO state)
void
clear_resident_pages(void)
{
    80001672:	1141                	addi	sp,sp,-16
    80001674:	e406                	sd	ra,8(sp)
    80001676:	e022                	sd	s0,0(sp)
    80001678:	0800                	addi	s0,sp,16
  struct proc *p = myproc();
    8000167a:	7ca010ef          	jal	80002e44 <myproc>
  
  // Clear all resident page tracking
  for(int i = 0; i < MAX_RESIDENT_PAGES; i++) {
    8000167e:	1a050793          	addi	a5,a0,416
    80001682:	7ff50713          	addi	a4,a0,2047
    80001686:	3a170713          	addi	a4,a4,929
    p->resident_pages[i].in_use = 0;
    p->resident_pages[i].va = 0;
    p->resident_pages[i].seq = 0;
    p->resident_pages[i].is_dirty = 0;
    p->resident_pages[i].swap_slot = -1;
    8000168a:	56fd                	li	a3,-1
    p->resident_pages[i].in_use = 0;
    8000168c:	0007aa23          	sw	zero,20(a5)
    p->resident_pages[i].va = 0;
    80001690:	0007b023          	sd	zero,0(a5)
    p->resident_pages[i].seq = 0;
    80001694:	0007a423          	sw	zero,8(a5)
    p->resident_pages[i].is_dirty = 0;
    80001698:	0007a623          	sw	zero,12(a5)
    p->resident_pages[i].swap_slot = -1;
    8000169c:	cb94                	sw	a3,16(a5)
  for(int i = 0; i < MAX_RESIDENT_PAGES; i++) {
    8000169e:	02878793          	addi	a5,a5,40
    800016a2:	fee795e3          	bne	a5,a4,8000168c <clear_resident_pages+0x1a>
    800016a6:	7ff50793          	addi	a5,a0,2047
    800016aa:	44978793          	addi	a5,a5,1097
    800016ae:	672d                	lui	a4,0xb
    800016b0:	c4870713          	addi	a4,a4,-952 # ac48 <_entry-0x7fff53b8>
    800016b4:	972a                	add	a4,a4,a0
  for(int i = 0; i < MAX_SWAP_PAGES; i++) {
    p->swapped_pages[i].in_use = 0;
    p->swapped_pages[i].va = 0;
    p->swapped_pages[i].seq = 0;
    p->swapped_pages[i].is_dirty = 0;
    p->swapped_pages[i].swap_slot = -1;
    800016b6:	56fd                	li	a3,-1
    p->swapped_pages[i].in_use = 0;
    800016b8:	0007aa23          	sw	zero,20(a5)
    p->swapped_pages[i].va = 0;
    800016bc:	0007b023          	sd	zero,0(a5)
    p->swapped_pages[i].seq = 0;
    800016c0:	0007a423          	sw	zero,8(a5)
    p->swapped_pages[i].is_dirty = 0;
    800016c4:	0007a623          	sw	zero,12(a5)
    p->swapped_pages[i].swap_slot = -1;
    800016c8:	cb94                	sw	a3,16(a5)
  for(int i = 0; i < MAX_SWAP_PAGES; i++) {
    800016ca:	02878793          	addi	a5,a5,40
    800016ce:	fee795e3          	bne	a5,a4,800016b8 <clear_resident_pages+0x46>
  }
  
  p->num_resident_pages = 0;
    800016d2:	7ff50793          	addi	a5,a0,2047
    800016d6:	3a07a0a3          	sw	zero,929(a5)
  p->num_swapped_pages = 0;
    800016da:	67ad                	lui	a5,0xb
    800016dc:	97aa                	add	a5,a5,a0
    800016de:	c407a423          	sw	zero,-952(a5) # ac48 <_entry-0x7fff53b8>
  p->next_fifo_seq = 1;  // Reset sequence counter
    800016e2:	4705                	li	a4,1
    800016e4:	18e52c23          	sw	a4,408(a0)
  p->memfull_logged = 0; // Reset MEMFULL flag for new exec
    800016e8:	ca07a423          	sw	zero,-856(a5)
}
    800016ec:	60a2                	ld	ra,8(sp)
    800016ee:	6402                	ld	s0,0(sp)
    800016f0:	0141                	addi	sp,sp,16
    800016f2:	8082                	ret

00000000800016f4 <enable_bonus_algorithm>:

// BONUS: Enable LFU-Recent page replacement algorithm
// Call this function to switch from FIFO to LFU-Recent for the current process
void
enable_bonus_algorithm(void)
{
    800016f4:	1141                	addi	sp,sp,-16
    800016f6:	e406                	sd	ra,8(sp)
    800016f8:	e022                	sd	s0,0(sp)
    800016fa:	0800                	addi	s0,sp,16
  struct proc *p = myproc();
    800016fc:	748010ef          	jal	80002e44 <myproc>
  p->use_bonus_algorithm = 1;
    80001700:	67ad                	lui	a5,0xb
    80001702:	97aa                	add	a5,a5,a0
    80001704:	4705                	li	a4,1
    80001706:	cae7a623          	sw	a4,-852(a5) # acac <_entry-0x7fff5354>
  p->global_time_counter = 1; // Initialize time counter
    8000170a:	cae7b823          	sd	a4,-848(a5)
  
  // Initialize bonus fields for existing resident pages
  for(int i = 0; i < MAX_RESIDENT_PAGES; i++) {
    8000170e:	1b450793          	addi	a5,a0,436
    80001712:	7ff50613          	addi	a2,a0,2047
    80001716:	3b560613          	addi	a2,a2,949 # 13b5 <_entry-0x7fffec4b>
    if(p->resident_pages[i].in_use) {
      p->resident_pages[i].access_frequency = 1; // Initial access
    8000171a:	883a                	mv	a6,a4
      p->resident_pages[i].last_access_time = p->global_time_counter++;
    8000171c:	66ad                	lui	a3,0xb
    8000171e:	96aa                	add	a3,a3,a0
    80001720:	a029                	j	8000172a <enable_bonus_algorithm+0x36>
  for(int i = 0; i < MAX_RESIDENT_PAGES; i++) {
    80001722:	02878793          	addi	a5,a5,40
    80001726:	00c78f63          	beq	a5,a2,80001744 <enable_bonus_algorithm+0x50>
    if(p->resident_pages[i].in_use) {
    8000172a:	4398                	lw	a4,0(a5)
    8000172c:	db7d                	beqz	a4,80001722 <enable_bonus_algorithm+0x2e>
      p->resident_pages[i].access_frequency = 1; // Initial access
    8000172e:	0107a223          	sw	a6,4(a5)
      p->resident_pages[i].last_access_time = p->global_time_counter++;
    80001732:	cb06b703          	ld	a4,-848(a3) # acb0 <_entry-0x7fff5350>
    80001736:	00170593          	addi	a1,a4,1
    8000173a:	cab6b823          	sd	a1,-848(a3)
    8000173e:	00e7b623          	sd	a4,12(a5)
    80001742:	b7c5                	j	80001722 <enable_bonus_algorithm+0x2e>
    }
  }
  
  printf("[pid %d] BONUS: LFU-Recent algorithm enabled\n", p->pid);
    80001744:	590c                	lw	a1,48(a0)
    80001746:	00008517          	auipc	a0,0x8
    8000174a:	a0250513          	addi	a0,a0,-1534 # 80009148 <etext+0x148>
    8000174e:	dadfe0ef          	jal	800004fa <printf>
}
    80001752:	60a2                	ld	ra,8(sp)
    80001754:	6402                	ld	s0,0(sp)
    80001756:	0141                	addi	sp,sp,16
    80001758:	8082                	ret

000000008000175a <update_page_access>:

// BONUS: Update page access statistics for LFU-Recent algorithm
// Called whenever a page is accessed (not just on page faults)
void
update_page_access(uint64 va)
{
    8000175a:	1101                	addi	sp,sp,-32
    8000175c:	ec06                	sd	ra,24(sp)
    8000175e:	e822                	sd	s0,16(sp)
    80001760:	e426                	sd	s1,8(sp)
    80001762:	1000                	addi	s0,sp,32
    80001764:	84aa                	mv	s1,a0
  struct proc *p = myproc();
    80001766:	6de010ef          	jal	80002e44 <myproc>
  
  // Only update if using bonus algorithm
  if(!p->use_bonus_algorithm) {
    8000176a:	67ad                	lui	a5,0xb
    8000176c:	97aa                	add	a5,a5,a0
    8000176e:	cac7a783          	lw	a5,-852(a5) # acac <_entry-0x7fff5354>
    80001772:	cba9                	beqz	a5,800017c4 <update_page_access+0x6a>
    80001774:	1a050793          	addi	a5,a0,416
    return;
  }
  
  // Find the page in resident pages and update access stats
  for(int i = 0; i < MAX_RESIDENT_PAGES; i++) {
    80001778:	4701                	li	a4,0
    8000177a:	04000613          	li	a2,64
    8000177e:	a031                	j	8000178a <update_page_access+0x30>
    80001780:	2705                	addiw	a4,a4,1
    80001782:	02878793          	addi	a5,a5,40
    80001786:	02c70f63          	beq	a4,a2,800017c4 <update_page_access+0x6a>
    if(p->resident_pages[i].in_use && p->resident_pages[i].va == va) {
    8000178a:	4bd4                	lw	a3,20(a5)
    8000178c:	daf5                	beqz	a3,80001780 <update_page_access+0x26>
    8000178e:	6394                	ld	a3,0(a5)
    80001790:	fe9698e3          	bne	a3,s1,80001780 <update_page_access+0x26>
      p->resident_pages[i].access_frequency++;
    80001794:	00271793          	slli	a5,a4,0x2
    80001798:	00e786b3          	add	a3,a5,a4
    8000179c:	068e                	slli	a3,a3,0x3
    8000179e:	96aa                	add	a3,a3,a0
    800017a0:	1b86a603          	lw	a2,440(a3)
    800017a4:	2605                	addiw	a2,a2,1
    800017a6:	1ac6ac23          	sw	a2,440(a3)
      p->resident_pages[i].last_access_time = p->global_time_counter++;
    800017aa:	66ad                	lui	a3,0xb
    800017ac:	96aa                	add	a3,a3,a0
    800017ae:	cb06b603          	ld	a2,-848(a3) # acb0 <_entry-0x7fff5350>
    800017b2:	00160593          	addi	a1,a2,1
    800017b6:	cab6b823          	sd	a1,-848(a3)
    800017ba:	97ba                	add	a5,a5,a4
    800017bc:	078e                	slli	a5,a5,0x3
    800017be:	953e                	add	a0,a0,a5
    800017c0:	1cc53023          	sd	a2,448(a0)
      break;
    }
  }
}
    800017c4:	60e2                	ld	ra,24(sp)
    800017c6:	6442                	ld	s0,16(sp)
    800017c8:	64a2                	ld	s1,8(sp)
    800017ca:	6105                	addi	sp,sp,32
    800017cc:	8082                	ret

00000000800017ce <ismapped>:

int
ismapped(pagetable_t pagetable, uint64 va)
{
    800017ce:	1141                	addi	sp,sp,-16
    800017d0:	e406                	sd	ra,8(sp)
    800017d2:	e022                	sd	s0,0(sp)
    800017d4:	0800                	addi	s0,sp,16
  pte_t *pte = walk(pagetable, va, 0);
    800017d6:	4601                	li	a2,0
    800017d8:	fb8ff0ef          	jal	80000f90 <walk>
  if (pte == 0) {
    800017dc:	c119                	beqz	a0,800017e2 <ismapped+0x14>
    return 0;
  }
  if (*pte & PTE_V){
    800017de:	6108                	ld	a0,0(a0)
    800017e0:	8905                	andi	a0,a0,1
    return 1;
  }
  return 0;
}
    800017e2:	60a2                	ld	ra,8(sp)
    800017e4:	6402                	ld	s0,0(sp)
    800017e6:	0141                	addi	sp,sp,16
    800017e8:	8082                	ret

00000000800017ea <create_swap_file>:
//part3 - Swap file management functions

// Create a unique swap file for the process
int
create_swap_file(void)
{
    800017ea:	7179                	addi	sp,sp,-48
    800017ec:	f406                	sd	ra,40(sp)
    800017ee:	f022                	sd	s0,32(sp)
    800017f0:	ec26                	sd	s1,24(sp)
    800017f2:	e84a                	sd	s2,16(sp)
    800017f4:	e44e                	sd	s3,8(sp)
    800017f6:	1800                	addi	s0,sp,48
  struct proc *p = myproc();
    800017f8:	64c010ef          	jal	80002e44 <myproc>
    800017fc:	84aa                	mv	s1,a0
  char *base = "/pgswp";
  int len = 0;
  while(base[len]) len++; // manual strlen
  
  // Copy base name
  for(int i = 0; i < len; i++) {
    800017fe:	00008797          	auipc	a5,0x8
    80001802:	97a78793          	addi	a5,a5,-1670 # 80009178 <etext+0x178>
    80001806:	7ff50713          	addi	a4,a0,2047
    8000180a:	3b170713          	addi	a4,a4,945
    8000180e:	00008617          	auipc	a2,0x8
    80001812:	97060613          	addi	a2,a2,-1680 # 8000917e <etext+0x17e>
    p->swapfilename[i] = base[i];
    80001816:	0007c683          	lbu	a3,0(a5)
    8000181a:	00d70023          	sb	a3,0(a4)
  for(int i = 0; i < len; i++) {
    8000181e:	0785                	addi	a5,a5,1
    80001820:	0705                	addi	a4,a4,1
    80001822:	fec79ae3          	bne	a5,a2,80001816 <create_swap_file+0x2c>
  }
  
  // Add PID as 5-digit number
  int pid = p->pid;
    80001826:	5898                	lw	a4,48(s1)
  p->swapfilename[len + 4] = '0' + (pid % 10); pid /= 10;
    80001828:	6905                	lui	s2,0x1
    8000182a:	9926                	add	s2,s2,s1
    8000182c:	666667b7          	lui	a5,0x66666
    80001830:	66778793          	addi	a5,a5,1639 # 66666667 <_entry-0x19999999>
    80001834:	02f706b3          	mul	a3,a4,a5
    80001838:	9689                	srai	a3,a3,0x22
    8000183a:	41f7561b          	sraiw	a2,a4,0x1f
    8000183e:	9e91                	subw	a3,a3,a2
    80001840:	0026961b          	slliw	a2,a3,0x2
    80001844:	9e35                	addw	a2,a2,a3
    80001846:	0016161b          	slliw	a2,a2,0x1
    8000184a:	9f11                	subw	a4,a4,a2
    8000184c:	0307071b          	addiw	a4,a4,48
    80001850:	bae90d23          	sb	a4,-1094(s2) # bba <_entry-0x7ffff446>
  p->swapfilename[len + 3] = '0' + (pid % 10); pid /= 10;
    80001854:	02f68733          	mul	a4,a3,a5
    80001858:	9709                	srai	a4,a4,0x22
    8000185a:	41f6d61b          	sraiw	a2,a3,0x1f
    8000185e:	9f11                	subw	a4,a4,a2
    80001860:	0027161b          	slliw	a2,a4,0x2
    80001864:	9e39                	addw	a2,a2,a4
    80001866:	0016161b          	slliw	a2,a2,0x1
    8000186a:	9e91                	subw	a3,a3,a2
    8000186c:	0306869b          	addiw	a3,a3,48
    80001870:	bad90ca3          	sb	a3,-1095(s2)
  p->swapfilename[len + 2] = '0' + (pid % 10); pid /= 10;
    80001874:	02f706b3          	mul	a3,a4,a5
    80001878:	9689                	srai	a3,a3,0x22
    8000187a:	41f7561b          	sraiw	a2,a4,0x1f
    8000187e:	9e91                	subw	a3,a3,a2
    80001880:	0026961b          	slliw	a2,a3,0x2
    80001884:	9e35                	addw	a2,a2,a3
    80001886:	0016161b          	slliw	a2,a2,0x1
    8000188a:	9f11                	subw	a4,a4,a2
    8000188c:	0307071b          	addiw	a4,a4,48
    80001890:	bae90c23          	sb	a4,-1096(s2)
  p->swapfilename[len + 1] = '0' + (pid % 10); pid /= 10;
    80001894:	02f68733          	mul	a4,a3,a5
    80001898:	9709                	srai	a4,a4,0x22
    8000189a:	41f6d61b          	sraiw	a2,a3,0x1f
    8000189e:	9f11                	subw	a4,a4,a2
    800018a0:	0027161b          	slliw	a2,a4,0x2
    800018a4:	9e39                	addw	a2,a2,a4
    800018a6:	0016161b          	slliw	a2,a2,0x1
    800018aa:	9e91                	subw	a3,a3,a2
    800018ac:	0306869b          	addiw	a3,a3,48
    800018b0:	bad90ba3          	sb	a3,-1097(s2)
  p->swapfilename[len + 0] = '0' + (pid % 10);
    800018b4:	02f707b3          	mul	a5,a4,a5
    800018b8:	9789                	srai	a5,a5,0x22
    800018ba:	41f7569b          	sraiw	a3,a4,0x1f
    800018be:	9f95                	subw	a5,a5,a3
    800018c0:	0027969b          	slliw	a3,a5,0x2
    800018c4:	9fb5                	addw	a5,a5,a3
    800018c6:	0017979b          	slliw	a5,a5,0x1
    800018ca:	9f1d                	subw	a4,a4,a5
    800018cc:	0307071b          	addiw	a4,a4,48
    800018d0:	bae90b23          	sb	a4,-1098(s2)
  p->swapfilename[len + 5] = 0; // null terminator
    800018d4:	ba090da3          	sb	zero,-1093(s2)
  
  // Create the swap file
  begin_op();
    800018d8:	579030ef          	jal	80005650 <begin_op>
  p->swapfile = create(p->swapfilename, T_FILE, 0, 0);
    800018dc:	7ff48993          	addi	s3,s1,2047
    800018e0:	3b198993          	addi	s3,s3,945
    800018e4:	4681                	li	a3,0
    800018e6:	4601                	li	a2,0
    800018e8:	4589                	li	a1,2
    800018ea:	854e                	mv	a0,s3
    800018ec:	1c4050ef          	jal	80006ab0 <create>
    800018f0:	baa93423          	sd	a0,-1112(s2)
  if(p->swapfile == 0) {
    800018f4:	c921                	beqz	a0,80001944 <create_swap_file+0x15a>
    end_op();
    return -1;
  }
  
  // NO pre-allocation - file will grow on-demand
  p->swap_slots_used = 0;
    800018f6:	7ff48793          	addi	a5,s1,2047
    800018fa:	3c07a0a3          	sw	zero,961(a5)
  for(int i = 0; i < SWAP_BITMAP_SIZE; i++) 
    800018fe:	3c978793          	addi	a5,a5,969
    80001902:	7ff48713          	addi	a4,s1,2047
    80001906:	44970713          	addi	a4,a4,1097
  {
    p->swap_bitmap[i] = 0;
    8000190a:	0007b023          	sd	zero,0(a5)
  for(int i = 0; i < SWAP_BITMAP_SIZE; i++) 
    8000190e:	07a1                	addi	a5,a5,8
    80001910:	fee79de3          	bne	a5,a4,8000190a <create_swap_file+0x120>
  }
  p->num_swapped_pages = 0;
    80001914:	67ad                	lui	a5,0xb
    80001916:	97a6                	add	a5,a5,s1
    80001918:	c407a423          	sw	zero,-952(a5) # ac48 <_entry-0x7fff53b8>
  
  iunlock(p->swapfile);
    8000191c:	3d6030ef          	jal	80004cf2 <iunlock>
  end_op();
    80001920:	5a1030ef          	jal	800056c0 <end_op>
  
  printf("[pid %d] SWAP file created: %s\n", p->pid, p->swapfilename);
    80001924:	864e                	mv	a2,s3
    80001926:	588c                	lw	a1,48(s1)
    80001928:	00008517          	auipc	a0,0x8
    8000192c:	85850513          	addi	a0,a0,-1960 # 80009180 <etext+0x180>
    80001930:	bcbfe0ef          	jal	800004fa <printf>
  return 0;
    80001934:	4501                	li	a0,0
}
    80001936:	70a2                	ld	ra,40(sp)
    80001938:	7402                	ld	s0,32(sp)
    8000193a:	64e2                	ld	s1,24(sp)
    8000193c:	6942                	ld	s2,16(sp)
    8000193e:	69a2                	ld	s3,8(sp)
    80001940:	6145                	addi	sp,sp,48
    80001942:	8082                	ret
    end_op();
    80001944:	57d030ef          	jal	800056c0 <end_op>
    return -1;
    80001948:	557d                	li	a0,-1
    8000194a:	b7f5                	j	80001936 <create_swap_file+0x14c>

000000008000194c <alloc_swap_slot>:


// Find a free swap slot
int
alloc_swap_slot(void)
{
    8000194c:	1101                	addi	sp,sp,-32
    8000194e:	ec06                	sd	ra,24(sp)
    80001950:	e822                	sd	s0,16(sp)
    80001952:	e426                	sd	s1,8(sp)
    80001954:	1000                	addi	s0,sp,32
  struct proc *p = myproc();
    80001956:	4ee010ef          	jal	80002e44 <myproc>
  
  // Check if we have space
  if(p->swap_slots_used >= MAX_SWAP_SLOTS) 
    8000195a:	7ff50793          	addi	a5,a0,2047
    8000195e:	3c17a603          	lw	a2,961(a5)
    80001962:	3ff00793          	li	a5,1023
    80001966:	02c7c463          	blt	a5,a2,8000198e <alloc_swap_slot+0x42>
    8000196a:	7ff50f93          	addi	t6,a0,2047
    8000196e:	3c9f8f93          	addi	t6,t6,969
    80001972:	4301                	li	t1,0
    80001974:	04000e13          	li	t3,64
           p->pid, p->swap_slots_used, MAX_SWAP_SLOTS);
    return -1; // No free slots
  }
  
  // Find first free bit in bitmap
  for(int word = 0; word < SWAP_BITMAP_SIZE; word++) 
    80001978:	4f01                	li	t5,0
  {
    if(p->swap_bitmap[word] != 0xFFFFFFFFFFFFFFFF) 
    8000197a:	52fd                	li	t0,-1
    8000197c:	6e85                	lui	t4,0x1
    8000197e:	c58e8e93          	addi	t4,t4,-936 # c58 <_entry-0x7ffff3a8>
    80001982:	65ad                	lui	a1,0xb
    80001984:	c5858593          	addi	a1,a1,-936 # ac58 <_entry-0x7fff53a8>
    80001988:	95aa                	add	a1,a1,a0
  for(int word = 0; word < SWAP_BITMAP_SIZE; word++) 
    8000198a:	43c1                	li	t2,16
    8000198c:	a851                	j	80001a20 <alloc_swap_slot+0xd4>
    printf("[pid %d] SWAP FULL: slots_used=%d >= MAX_SWAP_SLOTS=%d\n", 
    8000198e:	40000693          	li	a3,1024
    80001992:	590c                	lw	a1,48(a0)
    80001994:	00008517          	auipc	a0,0x8
    80001998:	80c50513          	addi	a0,a0,-2036 # 800091a0 <etext+0x1a0>
    8000199c:	b5ffe0ef          	jal	800004fa <printf>
    return -1; // No free slots
    800019a0:	54fd                	li	s1,-1
    800019a2:	a08d                	j	80001a04 <alloc_swap_slot+0xb8>
          int slot = word * 64 + bit;
          if(slot < MAX_SWAP_SLOTS) 
          {
            // Double-check this slot is not already used by another page
            int already_used = 0;
            for(int i = 0; i < MAX_SWAP_PAGES; i++) 
    800019a4:	02878793          	addi	a5,a5,40
    800019a8:	02b78463          	beq	a5,a1,800019d0 <alloc_swap_slot+0x84>
            {
              if(p->swapped_pages[i].in_use && p->swapped_pages[i].swap_slot == slot) 
    800019ac:	43d8                	lw	a4,4(a5)
    800019ae:	db7d                	beqz	a4,800019a4 <alloc_swap_slot+0x58>
    800019b0:	4398                	lw	a4,0(a5)
    800019b2:	fe9719e3          	bne	a4,s1,800019a4 <alloc_swap_slot+0x58>
      for(int bit = 0; bit < 64; bit++) 
    800019b6:	2685                	addiw	a3,a3,1
    800019b8:	05c68c63          	beq	a3,t3,80001a10 <alloc_swap_slot+0xc4>
    800019bc:	0066883b          	addw	a6,a3,t1
        if((p->swap_bitmap[word] & (1UL << bit)) == 0) 
    800019c0:	0108d7b3          	srl	a5,a7,a6
    800019c4:	8b85                	andi	a5,a5,1
    800019c6:	fbe5                	bnez	a5,800019b6 <alloc_swap_slot+0x6a>
          int slot = word * 64 + bit;
    800019c8:	84b6                	mv	s1,a3
          if(slot < MAX_SWAP_SLOTS) 
    800019ca:	01d507b3          	add	a5,a0,t4
    800019ce:	bff9                	j	800019ac <alloc_swap_slot+0x60>
              }
            }
            
            if(!already_used) 
            {
              p->swap_bitmap[word] |= (1UL << bit);
    800019d0:	178f0793          	addi	a5,t5,376
    800019d4:	078e                	slli	a5,a5,0x3
    800019d6:	97aa                	add	a5,a5,a0
    800019d8:	4705                	li	a4,1
    800019da:	01071733          	sll	a4,a4,a6
    800019de:	01176733          	or	a4,a4,a7
    800019e2:	e798                	sd	a4,8(a5)
              p->swap_slots_used++;
    800019e4:	0016069b          	addiw	a3,a2,1
    800019e8:	7ff50793          	addi	a5,a0,2047
    800019ec:	3cd7a0a3          	sw	a3,961(a5)
              printf("[pid %d] ALLOCATED slot=%d (slots_used=%d/%d)\n", 
    800019f0:	40000713          	li	a4,1024
    800019f4:	8626                	mv	a2,s1
    800019f6:	590c                	lw	a1,48(a0)
    800019f8:	00007517          	auipc	a0,0x7
    800019fc:	7e050513          	addi	a0,a0,2016 # 800091d8 <etext+0x1d8>
    80001a00:	afbfe0ef          	jal	800004fa <printf>
  }
  
  printf("[pid %d] NO FREE SLOTS: bitmap full? slots_used=%d\n", 
         p->pid, p->swap_slots_used);
  return -1; // Should not reach here if swap_slots_used count is correct
}
    80001a04:	8526                	mv	a0,s1
    80001a06:	60e2                	ld	ra,24(sp)
    80001a08:	6442                	ld	s0,16(sp)
    80001a0a:	64a2                	ld	s1,8(sp)
    80001a0c:	6105                	addi	sp,sp,32
    80001a0e:	8082                	ret
  for(int word = 0; word < SWAP_BITMAP_SIZE; word++) 
    80001a10:	2f05                	addiw	t5,t5,1
    80001a12:	0fa1                	addi	t6,t6,8
    80001a14:	040e0e1b          	addiw	t3,t3,64
    80001a18:	fc03031b          	addiw	t1,t1,-64
    80001a1c:	007f0963          	beq	t5,t2,80001a2e <alloc_swap_slot+0xe2>
    if(p->swap_bitmap[word] != 0xFFFFFFFFFFFFFFFF) 
    80001a20:	000fb883          	ld	a7,0(t6)
    80001a24:	fe5886e3          	beq	a7,t0,80001a10 <alloc_swap_slot+0xc4>
    80001a28:	006f169b          	slliw	a3,t5,0x6
    80001a2c:	bf41                	j	800019bc <alloc_swap_slot+0x70>
  printf("[pid %d] NO FREE SLOTS: bitmap full? slots_used=%d\n", 
    80001a2e:	590c                	lw	a1,48(a0)
    80001a30:	00007517          	auipc	a0,0x7
    80001a34:	7d850513          	addi	a0,a0,2008 # 80009208 <etext+0x208>
    80001a38:	ac3fe0ef          	jal	800004fa <printf>
  return -1; // Should not reach here if swap_slots_used count is correct
    80001a3c:	54fd                	li	s1,-1
    80001a3e:	b7d9                	j	80001a04 <alloc_swap_slot+0xb8>

0000000080001a40 <free_swap_slot>:

// Free a swap slot
void
free_swap_slot(int slot)
{
    80001a40:	1101                	addi	sp,sp,-32
    80001a42:	ec06                	sd	ra,24(sp)
    80001a44:	e822                	sd	s0,16(sp)
    80001a46:	e426                	sd	s1,8(sp)
    80001a48:	1000                	addi	s0,sp,32
    80001a4a:	84aa                	mv	s1,a0
  struct proc *p = myproc();
    80001a4c:	3f8010ef          	jal	80002e44 <myproc>
  
  if(slot < 0 || slot >= MAX_SWAP_SLOTS) {
    80001a50:	3ff00793          	li	a5,1023
    80001a54:	0297e563          	bltu	a5,s1,80001a7e <free_swap_slot+0x3e>
    return;
  }
  
  int word = slot / 64;
    80001a58:	41f4d79b          	sraiw	a5,s1,0x1f
    80001a5c:	01a7d79b          	srliw	a5,a5,0x1a
    80001a60:	9fa5                	addw	a5,a5,s1
    80001a62:	4067d79b          	sraiw	a5,a5,0x6
    80001a66:	078e                	slli	a5,a5,0x3
    80001a68:	97aa                	add	a5,a5,a0
  int bit = slot % 64;
  
  if(p->swap_bitmap[word] & (1UL << bit)) {
    80001a6a:	7ff78713          	addi	a4,a5,2047
    80001a6e:	3c973683          	ld	a3,969(a4)
    80001a72:	03f4f613          	andi	a2,s1,63
    80001a76:	00c6d733          	srl	a4,a3,a2
    80001a7a:	8b05                	andi	a4,a4,1
    80001a7c:	e711                	bnez	a4,80001a88 <free_swap_slot+0x48>
    p->swap_bitmap[word] &= ~(1UL << bit);
    p->swap_slots_used--;
    printf("[pid %d] FREED slot=%d (slots_used=%d/%d)\n", 
           p->pid, slot, p->swap_slots_used, MAX_SWAP_SLOTS);
  }
}
    80001a7e:	60e2                	ld	ra,24(sp)
    80001a80:	6442                	ld	s0,16(sp)
    80001a82:	64a2                	ld	s1,8(sp)
    80001a84:	6105                	addi	sp,sp,32
    80001a86:	8082                	ret
    p->swap_bitmap[word] &= ~(1UL << bit);
    80001a88:	6585                	lui	a1,0x1
    80001a8a:	97ae                	add	a5,a5,a1
    80001a8c:	4705                	li	a4,1
    80001a8e:	00c71733          	sll	a4,a4,a2
    80001a92:	fff74713          	not	a4,a4
    80001a96:	8f75                	and	a4,a4,a3
    80001a98:	bce7b423          	sd	a4,-1080(a5)
    p->swap_slots_used--;
    80001a9c:	00b507b3          	add	a5,a0,a1
    80001aa0:	bc07a683          	lw	a3,-1088(a5)
    80001aa4:	36fd                	addiw	a3,a3,-1
    80001aa6:	bcd7a023          	sw	a3,-1088(a5)
    printf("[pid %d] FREED slot=%d (slots_used=%d/%d)\n", 
    80001aaa:	40000713          	li	a4,1024
    80001aae:	8626                	mv	a2,s1
    80001ab0:	590c                	lw	a1,48(a0)
    80001ab2:	00007517          	auipc	a0,0x7
    80001ab6:	78e50513          	addi	a0,a0,1934 # 80009240 <etext+0x240>
    80001aba:	a41fe0ef          	jal	800004fa <printf>
    80001abe:	b7c1                	j	80001a7e <free_swap_slot+0x3e>

0000000080001ac0 <swap_out_page>:

// Write a page to swap
int
swap_out_page(uint64 va, char *mem, int is_dirty)
{
    80001ac0:	711d                	addi	sp,sp,-96
    80001ac2:	ec86                	sd	ra,88(sp)
    80001ac4:	e8a2                	sd	s0,80(sp)
    80001ac6:	e4a6                	sd	s1,72(sp)
    80001ac8:	e0ca                	sd	s2,64(sp)
    80001aca:	fc4e                	sd	s3,56(sp)
    80001acc:	f852                	sd	s4,48(sp)
    80001ace:	e862                	sd	s8,16(sp)
    80001ad0:	1080                	addi	s0,sp,96
    80001ad2:	8a2a                	mv	s4,a0
    80001ad4:	89ae                	mv	s3,a1
    80001ad6:	8c32                	mv	s8,a2
  struct proc *p = myproc();
    80001ad8:	36c010ef          	jal	80002e44 <myproc>
    80001adc:	84aa                	mv	s1,a0
  
  // Check if swap file is valid, create one if needed
  if(p->swapfile == 0) {
    80001ade:	7ff50793          	addi	a5,a0,2047
    80001ae2:	3a97b783          	ld	a5,937(a5)
    80001ae6:	0c078e63          	beqz	a5,80001bc2 <swap_out_page+0x102>
      return -1;
    }
  }
  
  // Allocate swap slot
  int slot = alloc_swap_slot();
    80001aea:	e63ff0ef          	jal	8000194c <alloc_swap_slot>
    80001aee:	892a                	mv	s2,a0
  if(slot < 0) {
    80001af0:	0e054663          	bltz	a0,80001bdc <swap_out_page+0x11c>
    printf("[pid %d] SWAPFULL\n", p->pid);
    return -1; // No free swap slots
  }
  
  // Write page to swap file
  begin_op();
    80001af4:	35d030ef          	jal	80005650 <begin_op>
  
  // Double-check swap file is still valid after begin_op
  if(p->swapfile == 0) {
    80001af8:	7ff48793          	addi	a5,s1,2047
    80001afc:	3a97b503          	ld	a0,937(a5)
    80001b00:	0e050763          	beqz	a0,80001bee <swap_out_page+0x12e>
    80001b04:	f456                	sd	s5,40(sp)
    80001b06:	f05a                	sd	s6,32(sp)
    80001b08:	ec5e                	sd	s7,24(sp)
    end_op();
    free_swap_slot(slot);
    return -1;
  }
  
  ilock(p->swapfile);
    80001b0a:	13a030ef          	jal	80004c44 <ilock>
  
  uint64 offset = slot * PGSIZE;
    80001b0e:	00c91a9b          	slliw	s5,s2,0xc
  printf("[pid %d] SWAPOUT_DEBUG: writing slot=%d offset=%lu size=%d\n", 
    80001b12:	6705                	lui	a4,0x1
    80001b14:	86d6                	mv	a3,s5
    80001b16:	864a                	mv	a2,s2
    80001b18:	588c                	lw	a1,48(s1)
    80001b1a:	00007517          	auipc	a0,0x7
    80001b1e:	7c650513          	addi	a0,a0,1990 # 800092e0 <etext+0x2e0>
    80001b22:	9d9fe0ef          	jal	800004fa <printf>
         p->pid, slot, offset, PGSIZE);
  
  // Ensure the file is large enough - extend if necessary
  uint64 required_size = offset + PGSIZE;
    80001b26:	6785                	lui	a5,0x1
    80001b28:	00fa86b3          	add	a3,s5,a5
  if(p->swapfile->size < required_size) {
    80001b2c:	97a6                	add	a5,a5,s1
    80001b2e:	ba87b783          	ld	a5,-1112(a5) # ba8 <_entry-0x7ffff458>
    80001b32:	47f0                	lw	a2,76(a5)
    80001b34:	02061793          	slli	a5,a2,0x20
    80001b38:	9381                	srli	a5,a5,0x20
    80001b3a:	0cd7e863          	bltu	a5,a3,80001c0a <swap_out_page+0x14a>
           p->pid, p->swapfile->size, required_size);
    // We don't need to explicitly extend - writei will do it if we write sequential data
    // But we can ensure the inode knows the final size
  }
  
  int written = writei(p->swapfile, 0, (uint64)mem, offset, PGSIZE);
    80001b3e:	6b05                	lui	s6,0x1
    80001b40:	016487b3          	add	a5,s1,s6
    80001b44:	875a                	mv	a4,s6
    80001b46:	86d6                	mv	a3,s5
    80001b48:	864e                	mv	a2,s3
    80001b4a:	4581                	li	a1,0
    80001b4c:	ba87b503          	ld	a0,-1112(a5)
    80001b50:	578030ef          	jal	800050c8 <writei>
    80001b54:	8baa                	mv	s7,a0
  printf("[pid %d] SWAPOUT_DEBUG: wrote %d bytes to offset %lu\n", 
    80001b56:	86d6                	mv	a3,s5
    80001b58:	862a                	mv	a2,a0
    80001b5a:	588c                	lw	a1,48(s1)
    80001b5c:	00008517          	auipc	a0,0x8
    80001b60:	80450513          	addi	a0,a0,-2044 # 80009360 <etext+0x360>
    80001b64:	997fe0ef          	jal	800004fa <printf>
         p->pid, written, offset);
         
  if(written != PGSIZE) {
    80001b68:	0b6b9963          	bne	s7,s6,80001c1a <swap_out_page+0x15a>
    end_op();
    free_swap_slot(slot);
    return -1;
  }
  
  iunlock(p->swapfile);
    80001b6c:	7ff48793          	addi	a5,s1,2047
    80001b70:	3a97b503          	ld	a0,937(a5)
    80001b74:	17e030ef          	jal	80004cf2 <iunlock>
  end_op();
    80001b78:	349030ef          	jal	800056c0 <end_op>
  
  // Debug: Log first integer value of written data
  int *intdata = (int*)mem;
  printf("[pid %d] SWAPOUT_DATA va=0x%lx slot=%d first_int=%d (bytes=%d,%d,%d,%d)\n", 
    80001b7c:	588c                	lw	a1,48(s1)
    80001b7e:	0039c783          	lbu	a5,3(s3)
    80001b82:	e03e                	sd	a5,0(sp)
    80001b84:	0029c883          	lbu	a7,2(s3)
    80001b88:	0019c803          	lbu	a6,1(s3)
    80001b8c:	0009c783          	lbu	a5,0(s3)
    80001b90:	0009a703          	lw	a4,0(s3)
    80001b94:	86ca                	mv	a3,s2
    80001b96:	8652                	mv	a2,s4
    80001b98:	00008517          	auipc	a0,0x8
    80001b9c:	87850513          	addi	a0,a0,-1928 # 80009410 <etext+0x410>
    80001ba0:	95bfe0ef          	jal	800004fa <printf>
         p->pid, va, slot, *intdata, 
         ((char*)mem)[0] & 0xFF, ((char*)mem)[1] & 0xFF, 
         ((char*)mem)[2] & 0xFF, ((char*)mem)[3] & 0xFF);
  
  // Add to swapped pages list with dirty status preserved
  for(int i = 0; i < MAX_SWAP_PAGES; i++) {
    80001ba4:	7ff48793          	addi	a5,s1,2047
    80001ba8:	45d78793          	addi	a5,a5,1117
    80001bac:	4701                	li	a4,0
    80001bae:	40000813          	li	a6,1024
    if(!p->swapped_pages[i].in_use) {
    80001bb2:	438c                	lw	a1,0(a5)
    80001bb4:	c9c5                	beqz	a1,80001c64 <swap_out_page+0x1a4>
  for(int i = 0; i < MAX_SWAP_PAGES; i++) {
    80001bb6:	2705                	addiw	a4,a4,1 # 1001 <_entry-0x7fffefff>
    80001bb8:	02878793          	addi	a5,a5,40
    80001bbc:	ff071be3          	bne	a4,a6,80001bb2 <swap_out_page+0xf2>
    80001bc0:	a8f9                	j	80001c9e <swap_out_page+0x1de>
    if(create_swap_file() < 0) {
    80001bc2:	c29ff0ef          	jal	800017ea <create_swap_file>
    80001bc6:	f20552e3          	bgez	a0,80001aea <swap_out_page+0x2a>
      printf("[pid %d] SWAPOUT_ERROR: no swap file\n", p->pid);
    80001bca:	588c                	lw	a1,48(s1)
    80001bcc:	00007517          	auipc	a0,0x7
    80001bd0:	6a450513          	addi	a0,a0,1700 # 80009270 <etext+0x270>
    80001bd4:	927fe0ef          	jal	800004fa <printf>
      return -1;
    80001bd8:	597d                	li	s2,-1
    80001bda:	a8f1                	j	80001cb6 <swap_out_page+0x1f6>
    printf("[pid %d] SWAPFULL\n", p->pid);
    80001bdc:	588c                	lw	a1,48(s1)
    80001bde:	00007517          	auipc	a0,0x7
    80001be2:	6ba50513          	addi	a0,a0,1722 # 80009298 <etext+0x298>
    80001be6:	915fe0ef          	jal	800004fa <printf>
    return -1; // No free swap slots
    80001bea:	597d                	li	s2,-1
    80001bec:	a0e9                	j	80001cb6 <swap_out_page+0x1f6>
    printf("[pid %d] SWAPOUT_ERROR: swap file disappeared\n", p->pid);
    80001bee:	588c                	lw	a1,48(s1)
    80001bf0:	00007517          	auipc	a0,0x7
    80001bf4:	6c050513          	addi	a0,a0,1728 # 800092b0 <etext+0x2b0>
    80001bf8:	903fe0ef          	jal	800004fa <printf>
    end_op();
    80001bfc:	2c5030ef          	jal	800056c0 <end_op>
    free_swap_slot(slot);
    80001c00:	854a                	mv	a0,s2
    80001c02:	e3fff0ef          	jal	80001a40 <free_swap_slot>
    return -1;
    80001c06:	597d                	li	s2,-1
    80001c08:	a07d                	j	80001cb6 <swap_out_page+0x1f6>
    printf("[pid %d] SWAPOUT_DEBUG: extending file from %d to %lu bytes\n", 
    80001c0a:	588c                	lw	a1,48(s1)
    80001c0c:	00007517          	auipc	a0,0x7
    80001c10:	71450513          	addi	a0,a0,1812 # 80009320 <etext+0x320>
    80001c14:	8e7fe0ef          	jal	800004fa <printf>
    80001c18:	b71d                	j	80001b3e <swap_out_page+0x7e>
    printf("[pid %d] WRITEI_FAILED: wrote %d bytes, expected %d\n", 
    80001c1a:	86da                	mv	a3,s6
    80001c1c:	865e                	mv	a2,s7
    80001c1e:	588c                	lw	a1,48(s1)
    80001c20:	00007517          	auipc	a0,0x7
    80001c24:	77850513          	addi	a0,a0,1912 # 80009398 <etext+0x398>
    80001c28:	8d3fe0ef          	jal	800004fa <printf>
    printf("[pid %d] SWAPOUT_DEBUG: file size=%d, offset=%lu, slot=%d\n", 
    80001c2c:	016489b3          	add	s3,s1,s6
    80001c30:	ba89b783          	ld	a5,-1112(s3)
    80001c34:	874a                	mv	a4,s2
    80001c36:	86d6                	mv	a3,s5
    80001c38:	47f0                	lw	a2,76(a5)
    80001c3a:	588c                	lw	a1,48(s1)
    80001c3c:	00007517          	auipc	a0,0x7
    80001c40:	79450513          	addi	a0,a0,1940 # 800093d0 <etext+0x3d0>
    80001c44:	8b7fe0ef          	jal	800004fa <printf>
    iunlock(p->swapfile);
    80001c48:	ba89b503          	ld	a0,-1112(s3)
    80001c4c:	0a6030ef          	jal	80004cf2 <iunlock>
    end_op();
    80001c50:	271030ef          	jal	800056c0 <end_op>
    free_swap_slot(slot);
    80001c54:	854a                	mv	a0,s2
    80001c56:	debff0ef          	jal	80001a40 <free_swap_slot>
    return -1;
    80001c5a:	597d                	li	s2,-1
    80001c5c:	7aa2                	ld	s5,40(sp)
    80001c5e:	7b02                	ld	s6,32(sp)
    80001c60:	6be2                	ld	s7,24(sp)
    80001c62:	a891                	j	80001cb6 <swap_out_page+0x1f6>
      p->swapped_pages[i].in_use = 1;
    80001c64:	00271693          	slli	a3,a4,0x2
    80001c68:	00e687b3          	add	a5,a3,a4
    80001c6c:	078e                	slli	a5,a5,0x3
    80001c6e:	97a6                	add	a5,a5,s1
    80001c70:	6605                	lui	a2,0x1
    80001c72:	97b2                	add	a5,a5,a2
    80001c74:	4585                	li	a1,1
    80001c76:	c4b7ae23          	sw	a1,-932(a5)
      p->swapped_pages[i].va = va;
    80001c7a:	c547b423          	sd	s4,-952(a5)
      p->swapped_pages[i].swap_slot = slot;
    80001c7e:	c527ac23          	sw	s2,-936(a5)
      p->swapped_pages[i].is_dirty = is_dirty; // Preserve dirty status
    80001c82:	00e687b3          	add	a5,a3,a4
    80001c86:	078e                	slli	a5,a5,0x3
    80001c88:	97a6                	add	a5,a5,s1
    80001c8a:	963e                	add	a2,a2,a5
    80001c8c:	c5862a23          	sw	s8,-940(a2) # c54 <_entry-0x7ffff3ac>
      p->num_swapped_pages++;
    80001c90:	67ad                	lui	a5,0xb
    80001c92:	97a6                	add	a5,a5,s1
    80001c94:	c487a703          	lw	a4,-952(a5) # ac48 <_entry-0x7fff53b8>
    80001c98:	2705                	addiw	a4,a4,1
    80001c9a:	c4e7a423          	sw	a4,-952(a5)
      break;
    }
  }
  
  printf("[pid %d] SWAPOUT va=0x%lx slot=%d\n", p->pid, va, slot);
    80001c9e:	86ca                	mv	a3,s2
    80001ca0:	8652                	mv	a2,s4
    80001ca2:	588c                	lw	a1,48(s1)
    80001ca4:	00007517          	auipc	a0,0x7
    80001ca8:	7bc50513          	addi	a0,a0,1980 # 80009460 <etext+0x460>
    80001cac:	84ffe0ef          	jal	800004fa <printf>
    80001cb0:	7aa2                	ld	s5,40(sp)
    80001cb2:	7b02                	ld	s6,32(sp)
    80001cb4:	6be2                	ld	s7,24(sp)
  return slot;
}
    80001cb6:	854a                	mv	a0,s2
    80001cb8:	60e6                	ld	ra,88(sp)
    80001cba:	6446                	ld	s0,80(sp)
    80001cbc:	64a6                	ld	s1,72(sp)
    80001cbe:	6906                	ld	s2,64(sp)
    80001cc0:	79e2                	ld	s3,56(sp)
    80001cc2:	7a42                	ld	s4,48(sp)
    80001cc4:	6c42                	ld	s8,16(sp)
    80001cc6:	6125                	addi	sp,sp,96
    80001cc8:	8082                	ret

0000000080001cca <evict_page>:
{
    80001cca:	7179                	addi	sp,sp,-48
    80001ccc:	f406                	sd	ra,40(sp)
    80001cce:	f022                	sd	s0,32(sp)
    80001cd0:	ec26                	sd	s1,24(sp)
    80001cd2:	e84a                	sd	s2,16(sp)
    80001cd4:	1800                	addi	s0,sp,48
  struct proc *p = myproc();
    80001cd6:	16e010ef          	jal	80002e44 <myproc>
    80001cda:	892a                	mv	s2,a0
  for(int i = 0; i < MAX_RESIDENT_PAGES; i++) 
    80001cdc:	1a850793          	addi	a5,a0,424
    80001ce0:	4701                	li	a4,0
  int oldest_seq = -1;
    80001ce2:	587d                	li	a6,-1
  int oldest_idx = -1;
    80001ce4:	84c2                	mv	s1,a6
      if(oldest_idx == -1 || p->resident_pages[i].seq < oldest_seq) 
    80001ce6:	88c2                	mv	a7,a6
  for(int i = 0; i < MAX_RESIDENT_PAGES; i++) 
    80001ce8:	04000593          	li	a1,64
    80001cec:	a809                	j	80001cfe <evict_page+0x34>
        oldest_seq = p->resident_pages[i].seq;
    80001cee:	00062803          	lw	a6,0(a2)
        oldest_idx = i;
    80001cf2:	84ba                	mv	s1,a4
  for(int i = 0; i < MAX_RESIDENT_PAGES; i++) 
    80001cf4:	2705                	addiw	a4,a4,1
    80001cf6:	02878793          	addi	a5,a5,40
    80001cfa:	00b70b63          	beq	a4,a1,80001d10 <evict_page+0x46>
    if(p->resident_pages[i].in_use) 
    80001cfe:	863e                	mv	a2,a5
    80001d00:	47d4                	lw	a3,12(a5)
    80001d02:	daed                	beqz	a3,80001cf4 <evict_page+0x2a>
      if(oldest_idx == -1 || p->resident_pages[i].seq < oldest_seq) 
    80001d04:	ff1485e3          	beq	s1,a7,80001cee <evict_page+0x24>
    80001d08:	4394                	lw	a3,0(a5)
    80001d0a:	ff06d5e3          	bge	a3,a6,80001cf4 <evict_page+0x2a>
    80001d0e:	b7c5                	j	80001cee <evict_page+0x24>
  if(oldest_idx == -1) 
    80001d10:	57fd                	li	a5,-1
    return 0;
    80001d12:	4501                	li	a0,0
  if(oldest_idx == -1) 
    80001d14:	10f48463          	beq	s1,a5,80001e1c <evict_page+0x152>
    80001d18:	e44e                	sd	s3,8(sp)
  printf("[pid %d] VICTIM va=0x%lx seq=%d algo=FIFO\n", p->pid, victim->va, victim->seq);
    80001d1a:	00249993          	slli	s3,s1,0x2
    80001d1e:	99a6                	add	s3,s3,s1
    80001d20:	098e                	slli	s3,s3,0x3
    80001d22:	99ca                	add	s3,s3,s2
    80001d24:	1a89a683          	lw	a3,424(s3)
    80001d28:	1a09b603          	ld	a2,416(s3)
    80001d2c:	03092583          	lw	a1,48(s2)
    80001d30:	00007517          	auipc	a0,0x7
    80001d34:	75850513          	addi	a0,a0,1880 # 80009488 <etext+0x488>
    80001d38:	fc2fe0ef          	jal	800004fa <printf>
  int is_dirty = victim->is_dirty;
    80001d3c:	1ac9a983          	lw	s3,428(s3)
  if(is_dirty) 
    80001d40:	06098963          	beqz	s3,80001db2 <evict_page+0xe8>
    uint64 pa = walkaddr(p->pagetable, victim->va);
    80001d44:	00249793          	slli	a5,s1,0x2
    80001d48:	97a6                	add	a5,a5,s1
    80001d4a:	078e                	slli	a5,a5,0x3
    80001d4c:	97ca                	add	a5,a5,s2
    80001d4e:	1a07b583          	ld	a1,416(a5)
    80001d52:	05093503          	ld	a0,80(s2)
    80001d56:	ad4ff0ef          	jal	8000102a <walkaddr>
    if(pa != 0) 
    80001d5a:	c549                	beqz	a0,80001de4 <evict_page+0x11a>
      int slot = swap_out_page(victim->va, mem, is_dirty);
    80001d5c:	00249793          	slli	a5,s1,0x2
    80001d60:	97a6                	add	a5,a5,s1
    80001d62:	078e                	slli	a5,a5,0x3
    80001d64:	97ca                	add	a5,a5,s2
    80001d66:	864e                	mv	a2,s3
    80001d68:	85aa                	mv	a1,a0
    80001d6a:	1a07b503          	ld	a0,416(a5)
    80001d6e:	d53ff0ef          	jal	80001ac0 <swap_out_page>
      if(slot < 0) 
    80001d72:	02054263          	bltz	a0,80001d96 <evict_page+0xcc>
      printf("[pid %d] EVICT va=0x%lx state=dirty\n", p->pid, victim->va);
    80001d76:	00249793          	slli	a5,s1,0x2
    80001d7a:	97a6                	add	a5,a5,s1
    80001d7c:	078e                	slli	a5,a5,0x3
    80001d7e:	97ca                	add	a5,a5,s2
    80001d80:	1a07b603          	ld	a2,416(a5)
    80001d84:	03092583          	lw	a1,48(s2)
    80001d88:	00007517          	auipc	a0,0x7
    80001d8c:	75050513          	addi	a0,a0,1872 # 800094d8 <etext+0x4d8>
    80001d90:	f6afe0ef          	jal	800004fa <printf>
    80001d94:	a881                	j	80001de4 <evict_page+0x11a>
        printf("[pid %d] KILL swap-exhausted\n", p->pid);
    80001d96:	03092583          	lw	a1,48(s2)
    80001d9a:	00007517          	auipc	a0,0x7
    80001d9e:	71e50513          	addi	a0,a0,1822 # 800094b8 <etext+0x4b8>
    80001da2:	f58fe0ef          	jal	800004fa <printf>
        setkilled(p);
    80001da6:	854a                	mv	a0,s2
    80001da8:	2c3010ef          	jal	8000386a <setkilled>
        return 0;
    80001dac:	4501                	li	a0,0
    80001dae:	69a2                	ld	s3,8(sp)
    80001db0:	a0b5                	j	80001e1c <evict_page+0x152>
    printf("[pid %d] EVICT va=0x%lx state=clean\n", p->pid, victim->va);
    80001db2:	00249993          	slli	s3,s1,0x2
    80001db6:	99a6                	add	s3,s3,s1
    80001db8:	098e                	slli	s3,s3,0x3
    80001dba:	99ca                	add	s3,s3,s2
    80001dbc:	1a09b603          	ld	a2,416(s3)
    80001dc0:	03092583          	lw	a1,48(s2)
    80001dc4:	00007517          	auipc	a0,0x7
    80001dc8:	73c50513          	addi	a0,a0,1852 # 80009500 <etext+0x500>
    80001dcc:	f2efe0ef          	jal	800004fa <printf>
    printf("[pid %d] DISCARD va=0x%lx\n", p->pid, victim->va);
    80001dd0:	1a09b603          	ld	a2,416(s3)
    80001dd4:	03092583          	lw	a1,48(s2)
    80001dd8:	00007517          	auipc	a0,0x7
    80001ddc:	75050513          	addi	a0,a0,1872 # 80009528 <etext+0x528>
    80001de0:	f1afe0ef          	jal	800004fa <printf>
  uint64 pa = walkaddr(p->pagetable, victim->va);// finds physical address for a given virtual address
    80001de4:	00249793          	slli	a5,s1,0x2
    80001de8:	97a6                	add	a5,a5,s1
    80001dea:	078e                	slli	a5,a5,0x3
    80001dec:	97ca                	add	a5,a5,s2
    80001dee:	1a07b583          	ld	a1,416(a5)
    80001df2:	05093503          	ld	a0,80(s2)
    80001df6:	a34ff0ef          	jal	8000102a <walkaddr>
  if(pa != 0) 
    80001dfa:	e51d                	bnez	a0,80001e28 <evict_page+0x15e>
  victim->in_use = 0;
    80001dfc:	00249793          	slli	a5,s1,0x2
    80001e00:	97a6                	add	a5,a5,s1
    80001e02:	078e                	slli	a5,a5,0x3
    80001e04:	97ca                	add	a5,a5,s2
    80001e06:	1a07aa23          	sw	zero,436(a5)
  p->num_resident_pages--;
    80001e0a:	6785                	lui	a5,0x1
    80001e0c:	993e                	add	s2,s2,a5
    80001e0e:	ba092783          	lw	a5,-1120(s2)
    80001e12:	37fd                	addiw	a5,a5,-1 # fff <_entry-0x7ffff001>
    80001e14:	baf92023          	sw	a5,-1120(s2)
  return 1;
    80001e18:	4505                	li	a0,1
    80001e1a:	69a2                	ld	s3,8(sp)
}
    80001e1c:	70a2                	ld	ra,40(sp)
    80001e1e:	7402                	ld	s0,32(sp)
    80001e20:	64e2                	ld	s1,24(sp)
    80001e22:	6942                	ld	s2,16(sp)
    80001e24:	6145                	addi	sp,sp,48
    80001e26:	8082                	ret
    uvmunmap(p->pagetable, victim->va, 1, 1); // Unmap and free
    80001e28:	00249793          	slli	a5,s1,0x2
    80001e2c:	97a6                	add	a5,a5,s1
    80001e2e:	078e                	slli	a5,a5,0x3
    80001e30:	97ca                	add	a5,a5,s2
    80001e32:	4685                	li	a3,1
    80001e34:	8636                	mv	a2,a3
    80001e36:	1a07b583          	ld	a1,416(a5)
    80001e3a:	05093503          	ld	a0,80(s2)
    80001e3e:	bf6ff0ef          	jal	80001234 <uvmunmap>
    80001e42:	bf6d                	j	80001dfc <evict_page+0x132>

0000000080001e44 <evict_page_lfu_recent>:
{
    80001e44:	7179                	addi	sp,sp,-48
    80001e46:	f406                	sd	ra,40(sp)
    80001e48:	f022                	sd	s0,32(sp)
    80001e4a:	ec26                	sd	s1,24(sp)
    80001e4c:	e84a                	sd	s2,16(sp)
    80001e4e:	1800                	addi	s0,sp,48
  struct proc *p = myproc();
    80001e50:	7f5000ef          	jal	80002e44 <myproc>
    80001e54:	892a                	mv	s2,a0
  if(!p->memfull_logged) {
    80001e56:	67ad                	lui	a5,0xb
    80001e58:	97aa                	add	a5,a5,a0
    80001e5a:	ca87a783          	lw	a5,-856(a5) # aca8 <_entry-0x7fff5358>
    80001e5e:	cf99                	beqz	a5,80001e7c <evict_page_lfu_recent+0x38>
  for(int i = 0; i < MAX_RESIDENT_PAGES; i++) 
    80001e60:	1b490713          	addi	a4,s2,436
{
    80001e64:	4681                	li	a3,0
    80001e66:	57fd                	li	a5,-1
    80001e68:	84be                	mv	s1,a5
      int score = calculate_lfu_recent_score(&p->resident_pages[i], p->global_time_counter);
    80001e6a:	632d                	lui	t1,0xb
    80001e6c:	934a                	add	t1,t1,s2
  int frequency_component = (page->access_frequency > 0) ? (1000 / page->access_frequency) : 1000;
    80001e6e:	3e800e13          	li	t3,1000
    80001e72:	3e800e93          	li	t4,1000
  for(int i = 0; i < MAX_RESIDENT_PAGES; i++) 
    80001e76:	04000513          	li	a0,64
    80001e7a:	a02d                	j	80001ea4 <evict_page_lfu_recent+0x60>
    printf("[pid %d] MEMFULL: Memory full, invoking LFU-Recent replacement\n", p->pid);
    80001e7c:	590c                	lw	a1,48(a0)
    80001e7e:	00007517          	auipc	a0,0x7
    80001e82:	6ca50513          	addi	a0,a0,1738 # 80009548 <etext+0x548>
    80001e86:	e74fe0ef          	jal	800004fa <printf>
    p->memfull_logged = 1;
    80001e8a:	67ad                	lui	a5,0xb
    80001e8c:	97ca                	add	a5,a5,s2
    80001e8e:	4705                	li	a4,1
    80001e90:	cae7a423          	sw	a4,-856(a5) # aca8 <_entry-0x7fff5358>
    80001e94:	b7f1                	j	80001e60 <evict_page_lfu_recent+0x1c>
        highest_score = score;
    80001e96:	87b2                	mv	a5,a2
        victim_idx = i;
    80001e98:	84b6                	mv	s1,a3
  for(int i = 0; i < MAX_RESIDENT_PAGES; i++) 
    80001e9a:	2685                	addiw	a3,a3,1
    80001e9c:	02870713          	addi	a4,a4,40
    80001ea0:	02a68963          	beq	a3,a0,80001ed2 <evict_page_lfu_recent+0x8e>
    if(p->resident_pages[i].in_use) 
    80001ea4:	85ba                	mv	a1,a4
    80001ea6:	4310                	lw	a2,0(a4)
    80001ea8:	da6d                	beqz	a2,80001e9a <evict_page_lfu_recent+0x56>
      int score = calculate_lfu_recent_score(&p->resident_pages[i], p->global_time_counter);
    80001eaa:	cb033603          	ld	a2,-848(t1) # acb0 <_entry-0x7fff5350>
  int frequency_component = (page->access_frequency > 0) ? (1000 / page->access_frequency) : 1000;
    80001eae:	00472883          	lw	a7,4(a4)
    80001eb2:	8872                	mv	a6,t3
    80001eb4:	01105463          	blez	a7,80001ebc <evict_page_lfu_recent+0x78>
    80001eb8:	031ec83b          	divw	a6,t4,a7
  int recency_component = (int)(current_time - page->last_access_time);
    80001ebc:	00c5b583          	ld	a1,12(a1) # 100c <_entry-0x7fffeff4>
    80001ec0:	9e0d                	subw	a2,a2,a1
  return frequency_component + recency_component;
    80001ec2:	0106063b          	addw	a2,a2,a6
      if(victim_idx == -1 || score > highest_score) 
    80001ec6:	00148593          	addi	a1,s1,1
    80001eca:	d5f1                	beqz	a1,80001e96 <evict_page_lfu_recent+0x52>
    80001ecc:	fcc7d7e3          	bge	a5,a2,80001e9a <evict_page_lfu_recent+0x56>
    80001ed0:	b7d9                	j	80001e96 <evict_page_lfu_recent+0x52>
  if(victim_idx == -1) 
    80001ed2:	577d                	li	a4,-1
    return 0;
    80001ed4:	4501                	li	a0,0
  if(victim_idx == -1) 
    80001ed6:	10e48663          	beq	s1,a4,80001fe2 <evict_page_lfu_recent+0x19e>
    80001eda:	e44e                	sd	s3,8(sp)
  printf("[pid %d] VICTIM va=0x%lx freq=%d last_access=%lu score=%d\n", 
    80001edc:	00249993          	slli	s3,s1,0x2
    80001ee0:	99a6                	add	s3,s3,s1
    80001ee2:	098e                	slli	s3,s3,0x3
    80001ee4:	99ca                	add	s3,s3,s2
    80001ee6:	1c09b703          	ld	a4,448(s3)
    80001eea:	1b89a683          	lw	a3,440(s3)
    80001eee:	1a09b603          	ld	a2,416(s3)
    80001ef2:	03092583          	lw	a1,48(s2)
    80001ef6:	00007517          	auipc	a0,0x7
    80001efa:	69250513          	addi	a0,a0,1682 # 80009588 <etext+0x588>
    80001efe:	dfcfe0ef          	jal	800004fa <printf>
  int is_dirty = victim->is_dirty;
    80001f02:	1ac9a983          	lw	s3,428(s3)
  if(is_dirty) 
    80001f06:	06098963          	beqz	s3,80001f78 <evict_page_lfu_recent+0x134>
    uint64 pa = walkaddr(p->pagetable, victim->va);
    80001f0a:	00249793          	slli	a5,s1,0x2
    80001f0e:	97a6                	add	a5,a5,s1
    80001f10:	078e                	slli	a5,a5,0x3
    80001f12:	97ca                	add	a5,a5,s2
    80001f14:	1a07b583          	ld	a1,416(a5)
    80001f18:	05093503          	ld	a0,80(s2)
    80001f1c:	90eff0ef          	jal	8000102a <walkaddr>
    if(pa != 0) 
    80001f20:	c549                	beqz	a0,80001faa <evict_page_lfu_recent+0x166>
      int slot = swap_out_page(victim->va, mem, is_dirty);
    80001f22:	00249793          	slli	a5,s1,0x2
    80001f26:	97a6                	add	a5,a5,s1
    80001f28:	078e                	slli	a5,a5,0x3
    80001f2a:	97ca                	add	a5,a5,s2
    80001f2c:	864e                	mv	a2,s3
    80001f2e:	85aa                	mv	a1,a0
    80001f30:	1a07b503          	ld	a0,416(a5)
    80001f34:	b8dff0ef          	jal	80001ac0 <swap_out_page>
      if(slot < 0) 
    80001f38:	02054263          	bltz	a0,80001f5c <evict_page_lfu_recent+0x118>
      printf("[pid %d] EVICT va=0x%lx state=dirty\n", p->pid, victim->va);
    80001f3c:	00249793          	slli	a5,s1,0x2
    80001f40:	97a6                	add	a5,a5,s1
    80001f42:	078e                	slli	a5,a5,0x3
    80001f44:	97ca                	add	a5,a5,s2
    80001f46:	1a07b603          	ld	a2,416(a5)
    80001f4a:	03092583          	lw	a1,48(s2)
    80001f4e:	00007517          	auipc	a0,0x7
    80001f52:	58a50513          	addi	a0,a0,1418 # 800094d8 <etext+0x4d8>
    80001f56:	da4fe0ef          	jal	800004fa <printf>
    80001f5a:	a881                	j	80001faa <evict_page_lfu_recent+0x166>
        printf("[pid %d] KILL swap-exhausted\n", p->pid);
    80001f5c:	03092583          	lw	a1,48(s2)
    80001f60:	00007517          	auipc	a0,0x7
    80001f64:	55850513          	addi	a0,a0,1368 # 800094b8 <etext+0x4b8>
    80001f68:	d92fe0ef          	jal	800004fa <printf>
        setkilled(p);
    80001f6c:	854a                	mv	a0,s2
    80001f6e:	0fd010ef          	jal	8000386a <setkilled>
        return 0;
    80001f72:	4501                	li	a0,0
    80001f74:	69a2                	ld	s3,8(sp)
    80001f76:	a0b5                	j	80001fe2 <evict_page_lfu_recent+0x19e>
    printf("[pid %d] EVICT va=0x%lx state=clean\n", p->pid, victim->va);
    80001f78:	00249993          	slli	s3,s1,0x2
    80001f7c:	99a6                	add	s3,s3,s1
    80001f7e:	098e                	slli	s3,s3,0x3
    80001f80:	99ca                	add	s3,s3,s2
    80001f82:	1a09b603          	ld	a2,416(s3)
    80001f86:	03092583          	lw	a1,48(s2)
    80001f8a:	00007517          	auipc	a0,0x7
    80001f8e:	57650513          	addi	a0,a0,1398 # 80009500 <etext+0x500>
    80001f92:	d68fe0ef          	jal	800004fa <printf>
    printf("[pid %d] DISCARD va=0x%lx\n", p->pid, victim->va);
    80001f96:	1a09b603          	ld	a2,416(s3)
    80001f9a:	03092583          	lw	a1,48(s2)
    80001f9e:	00007517          	auipc	a0,0x7
    80001fa2:	58a50513          	addi	a0,a0,1418 # 80009528 <etext+0x528>
    80001fa6:	d54fe0ef          	jal	800004fa <printf>
  uint64 pa = walkaddr(p->pagetable, victim->va);
    80001faa:	00249793          	slli	a5,s1,0x2
    80001fae:	97a6                	add	a5,a5,s1
    80001fb0:	078e                	slli	a5,a5,0x3
    80001fb2:	97ca                	add	a5,a5,s2
    80001fb4:	1a07b583          	ld	a1,416(a5)
    80001fb8:	05093503          	ld	a0,80(s2)
    80001fbc:	86eff0ef          	jal	8000102a <walkaddr>
  if(pa != 0) 
    80001fc0:	e51d                	bnez	a0,80001fee <evict_page_lfu_recent+0x1aa>
  victim->in_use = 0;
    80001fc2:	00249793          	slli	a5,s1,0x2
    80001fc6:	97a6                	add	a5,a5,s1
    80001fc8:	078e                	slli	a5,a5,0x3
    80001fca:	97ca                	add	a5,a5,s2
    80001fcc:	1a07aa23          	sw	zero,436(a5)
  p->num_resident_pages--;
    80001fd0:	6785                	lui	a5,0x1
    80001fd2:	993e                	add	s2,s2,a5
    80001fd4:	ba092783          	lw	a5,-1120(s2)
    80001fd8:	37fd                	addiw	a5,a5,-1 # fff <_entry-0x7ffff001>
    80001fda:	baf92023          	sw	a5,-1120(s2)
  return 1;
    80001fde:	4505                	li	a0,1
    80001fe0:	69a2                	ld	s3,8(sp)
}
    80001fe2:	70a2                	ld	ra,40(sp)
    80001fe4:	7402                	ld	s0,32(sp)
    80001fe6:	64e2                	ld	s1,24(sp)
    80001fe8:	6942                	ld	s2,16(sp)
    80001fea:	6145                	addi	sp,sp,48
    80001fec:	8082                	ret
    uvmunmap(p->pagetable, victim->va, 1, 1); // Unmap and free
    80001fee:	00249793          	slli	a5,s1,0x2
    80001ff2:	97a6                	add	a5,a5,s1
    80001ff4:	078e                	slli	a5,a5,0x3
    80001ff6:	97ca                	add	a5,a5,s2
    80001ff8:	4685                	li	a3,1
    80001ffa:	8636                	mv	a2,a3
    80001ffc:	1a07b583          	ld	a1,416(a5)
    80002000:	05093503          	ld	a0,80(s2)
    80002004:	a30ff0ef          	jal	80001234 <uvmunmap>
    80002008:	bf6d                	j	80001fc2 <evict_page_lfu_recent+0x17e>

000000008000200a <evict_page_adaptive>:
{
    8000200a:	1141                	addi	sp,sp,-16
    8000200c:	e406                	sd	ra,8(sp)
    8000200e:	e022                	sd	s0,0(sp)
    80002010:	0800                	addi	s0,sp,16
  struct proc *p = myproc();
    80002012:	633000ef          	jal	80002e44 <myproc>
  if(p->use_bonus_algorithm) {
    80002016:	67ad                	lui	a5,0xb
    80002018:	953e                	add	a0,a0,a5
    8000201a:	cac52783          	lw	a5,-852(a0)
    8000201e:	c799                	beqz	a5,8000202c <evict_page_adaptive+0x22>
    return evict_page_lfu_recent();
    80002020:	e25ff0ef          	jal	80001e44 <evict_page_lfu_recent>
}
    80002024:	60a2                	ld	ra,8(sp)
    80002026:	6402                	ld	s0,0(sp)
    80002028:	0141                	addi	sp,sp,16
    8000202a:	8082                	ret
    return evict_page();
    8000202c:	c9fff0ef          	jal	80001cca <evict_page>
    80002030:	bfd5                	j	80002024 <evict_page_adaptive+0x1a>

0000000080002032 <add_resident_page>:
{
    80002032:	7179                	addi	sp,sp,-48
    80002034:	f406                	sd	ra,40(sp)
    80002036:	f022                	sd	s0,32(sp)
    80002038:	ec26                	sd	s1,24(sp)
    8000203a:	e84a                	sd	s2,16(sp)
    8000203c:	e44e                	sd	s3,8(sp)
    8000203e:	e052                	sd	s4,0(sp)
    80002040:	1800                	addi	s0,sp,48
    80002042:	89aa                	mv	s3,a0
    80002044:	8a2e                	mv	s4,a1
  struct proc *p = myproc();
    80002046:	5ff000ef          	jal	80002e44 <myproc>
    8000204a:	84aa                	mv	s1,a0
  for(int i = 0; i < MAX_RESIDENT_PAGES; i++) {
    8000204c:	1b450913          	addi	s2,a0,436
  struct proc *p = myproc();
    80002050:	874a                	mv	a4,s2
  for(int i = 0; i < MAX_RESIDENT_PAGES; i++) {
    80002052:	4781                	li	a5,0
    80002054:	04000813          	li	a6,64
    if(!p->resident_pages[i].in_use) {
    80002058:	4314                	lw	a3,0(a4)
    8000205a:	ca95                	beqz	a3,8000208e <add_resident_page+0x5c>
  for(int i = 0; i < MAX_RESIDENT_PAGES; i++) {
    8000205c:	2785                	addiw	a5,a5,1 # b001 <_entry-0x7fff4fff>
    8000205e:	02870713          	addi	a4,a4,40
    80002062:	ff079be3          	bne	a5,a6,80002058 <add_resident_page+0x26>
  if(evict_page_adaptive() == 0) {
    80002066:	fa5ff0ef          	jal	8000200a <evict_page_adaptive>
  for(int i = 0; i < MAX_RESIDENT_PAGES; i++) 
    8000206a:	4781                	li	a5,0
    8000206c:	04000693          	li	a3,64
  if(evict_page_adaptive() == 0) {
    80002070:	cd35                	beqz	a0,800020ec <add_resident_page+0xba>
    if(!p->resident_pages[i].in_use) 
    80002072:	00092703          	lw	a4,0(s2)
    80002076:	c749                	beqz	a4,80002100 <add_resident_page+0xce>
  for(int i = 0; i < MAX_RESIDENT_PAGES; i++) 
    80002078:	2785                	addiw	a5,a5,1
    8000207a:	02890913          	addi	s2,s2,40
    8000207e:	fed79ae3          	bne	a5,a3,80002072 <add_resident_page+0x40>
  panic("add_resident_page: still no free slots after eviction");
    80002082:	00007517          	auipc	a0,0x7
    80002086:	59e50513          	addi	a0,a0,1438 # 80009620 <etext+0x620>
    8000208a:	f9afe0ef          	jal	80000824 <panic>
      p->resident_pages[i].va = va;
    8000208e:	00279713          	slli	a4,a5,0x2
    80002092:	00f70633          	add	a2,a4,a5
    80002096:	060e                	slli	a2,a2,0x3
    80002098:	9626                	add	a2,a2,s1
    8000209a:	1b363023          	sd	s3,416(a2)
      p->resident_pages[i].seq = p->next_fifo_seq++;
    8000209e:	1984a683          	lw	a3,408(s1)
    800020a2:	0016859b          	addiw	a1,a3,1
    800020a6:	18b4ac23          	sw	a1,408(s1)
    800020aa:	1ad62423          	sw	a3,424(a2)
      p->resident_pages[i].is_dirty = is_dirty;
    800020ae:	1b462623          	sw	s4,428(a2)
      p->resident_pages[i].swap_slot = -1;
    800020b2:	55fd                	li	a1,-1
    800020b4:	1ab62823          	sw	a1,432(a2)
      p->resident_pages[i].in_use = 1;
    800020b8:	4705                	li	a4,1
    800020ba:	1ae62a23          	sw	a4,436(a2)
      p->num_resident_pages++;
    800020be:	6785                	lui	a5,0x1
    800020c0:	97a6                	add	a5,a5,s1
    800020c2:	ba07a703          	lw	a4,-1120(a5) # ba0 <_entry-0x7ffff460>
    800020c6:	2705                	addiw	a4,a4,1
    800020c8:	bae7a023          	sw	a4,-1120(a5)
      printf("[pid %d] RESIDENT va=0x%lx seq=%d\n", p->pid, va, p->resident_pages[i].seq);
    800020cc:	864e                	mv	a2,s3
    800020ce:	588c                	lw	a1,48(s1)
    800020d0:	00007517          	auipc	a0,0x7
    800020d4:	4f850513          	addi	a0,a0,1272 # 800095c8 <etext+0x5c8>
    800020d8:	c22fe0ef          	jal	800004fa <printf>
}
    800020dc:	70a2                	ld	ra,40(sp)
    800020de:	7402                	ld	s0,32(sp)
    800020e0:	64e2                	ld	s1,24(sp)
    800020e2:	6942                	ld	s2,16(sp)
    800020e4:	69a2                	ld	s3,8(sp)
    800020e6:	6a02                	ld	s4,0(sp)
    800020e8:	6145                	addi	sp,sp,48
    800020ea:	8082                	ret
    printf("[pid %d] EVICTION FAILED - terminating process\n", p->pid);
    800020ec:	588c                	lw	a1,48(s1)
    800020ee:	00007517          	auipc	a0,0x7
    800020f2:	50250513          	addi	a0,a0,1282 # 800095f0 <etext+0x5f0>
    800020f6:	c04fe0ef          	jal	800004fa <printf>
    p->killed = 1;
    800020fa:	4785                	li	a5,1
    800020fc:	d49c                	sw	a5,40(s1)
    return;
    800020fe:	bff9                	j	800020dc <add_resident_page+0xaa>
      p->resident_pages[i].va = va;
    80002100:	00279613          	slli	a2,a5,0x2
    80002104:	00f60733          	add	a4,a2,a5
    80002108:	070e                	slli	a4,a4,0x3
    8000210a:	9726                	add	a4,a4,s1
    8000210c:	1b373023          	sd	s3,416(a4)
      p->resident_pages[i].seq = p->next_fifo_seq++;
    80002110:	1984a683          	lw	a3,408(s1)
    80002114:	0016859b          	addiw	a1,a3,1
    80002118:	18b4ac23          	sw	a1,408(s1)
    8000211c:	1ad72423          	sw	a3,424(a4)
      p->resident_pages[i].is_dirty = is_dirty;
    80002120:	1b472623          	sw	s4,428(a4)
      p->resident_pages[i].swap_slot = -1;
    80002124:	55fd                	li	a1,-1
    80002126:	1ab72823          	sw	a1,432(a4)
      p->resident_pages[i].in_use = 1;
    8000212a:	4585                	li	a1,1
    8000212c:	1ab72a23          	sw	a1,436(a4)
      p->resident_pages[i].access_frequency = 1;
    80002130:	1ab72c23          	sw	a1,440(a4)
      p->resident_pages[i].last_access_time = p->global_time_counter++;
    80002134:	672d                	lui	a4,0xb
    80002136:	9726                	add	a4,a4,s1
    80002138:	cb073583          	ld	a1,-848(a4) # acb0 <_entry-0x7fff5350>
    8000213c:	00158513          	addi	a0,a1,1
    80002140:	caa73823          	sd	a0,-848(a4)
    80002144:	97b2                	add	a5,a5,a2
    80002146:	078e                	slli	a5,a5,0x3
    80002148:	97a6                	add	a5,a5,s1
    8000214a:	1cb7b023          	sd	a1,448(a5)
      p->num_resident_pages++;
    8000214e:	6785                	lui	a5,0x1
    80002150:	97a6                	add	a5,a5,s1
    80002152:	ba07a703          	lw	a4,-1120(a5) # ba0 <_entry-0x7ffff460>
    80002156:	2705                	addiw	a4,a4,1
    80002158:	bae7a023          	sw	a4,-1120(a5)
      printf("[pid %d] RESIDENT va=0x%lx seq=%d\n", p->pid, va, p->resident_pages[i].seq);
    8000215c:	864e                	mv	a2,s3
    8000215e:	588c                	lw	a1,48(s1)
    80002160:	00007517          	auipc	a0,0x7
    80002164:	46850513          	addi	a0,a0,1128 # 800095c8 <etext+0x5c8>
    80002168:	b92fe0ef          	jal	800004fa <printf>
      return;
    8000216c:	bf85                	j	800020dc <add_resident_page+0xaa>

000000008000216e <allocate_zero_page>:
{
    8000216e:	715d                	addi	sp,sp,-80
    80002170:	e486                	sd	ra,72(sp)
    80002172:	e0a2                	sd	s0,64(sp)
    80002174:	fc26                	sd	s1,56(sp)
    80002176:	f84a                	sd	s2,48(sp)
    80002178:	f44e                	sd	s3,40(sp)
    8000217a:	ec56                	sd	s5,24(sp)
    8000217c:	e85a                	sd	s6,16(sp)
    8000217e:	e45e                	sd	s7,8(sp)
    80002180:	0880                	addi	s0,sp,80
    80002182:	8b2a                	mv	s6,a0
    80002184:	89ae                	mv	s3,a1
    80002186:	8bb2                	mv	s7,a2
  struct proc *p = myproc();
    80002188:	4bd000ef          	jal	80002e44 <myproc>
    8000218c:	84aa                	mv	s1,a0
  mem = kalloc();
    8000218e:	9bbfe0ef          	jal	80000b48 <kalloc>
    80002192:	892a                	mv	s2,a0
  if(mem == 0) {
    80002194:	cd41                	beqz	a0,8000222c <allocate_zero_page+0xbe>
    80002196:	f052                	sd	s4,32(sp)
  memset(mem, 0, PGSIZE);
    80002198:	6605                	lui	a2,0x1
    8000219a:	4581                	li	a1,0
    8000219c:	854a                	mv	a0,s2
    8000219e:	b5ffe0ef          	jal	80000cfc <memset>
  uint64 stack_limit = p->trapframe ? PGROUNDDOWN(p->trapframe->sp) - PGSIZE : 0;
    800021a2:	6cbc                	ld	a5,88(s1)
    800021a4:	cbe9                	beqz	a5,80002276 <allocate_zero_page+0x108>
  if((va >= p->heap_start && va < p->sz) || 
    800021a6:	1884b703          	ld	a4,392(s1)
    800021aa:	00e9e563          	bltu	s3,a4,800021b4 <allocate_zero_page+0x46>
    800021ae:	64b4                	ld	a3,72(s1)
    800021b0:	02d9e163          	bltu	s3,a3,800021d2 <allocate_zero_page+0x64>
  uint64 stack_limit = p->trapframe ? PGROUNDDOWN(p->trapframe->sp) - PGSIZE : 0;
    800021b4:	7b94                	ld	a3,48(a5)
    800021b6:	767d                	lui	a2,0xfffff
    800021b8:	8ef1                	and	a3,a3,a2
    800021ba:	96b2                	add	a3,a3,a2
     (p->trapframe && va >= stack_limit && va < PGROUNDUP(p->trapframe->sp))) {
    800021bc:	0ad9e463          	bltu	s3,a3,80002264 <allocate_zero_page+0xf6>
    800021c0:	c3d5                	beqz	a5,80002264 <allocate_zero_page+0xf6>
    800021c2:	7b9c                	ld	a5,48(a5)
    800021c4:	6685                	lui	a3,0x1
    800021c6:	16fd                	addi	a3,a3,-1 # fff <_entry-0x7ffff001>
    800021c8:	97b6                	add	a5,a5,a3
    800021ca:	8ff1                	and	a5,a5,a2
  int perm = PTE_R | PTE_U;
    800021cc:	46c9                	li	a3,18
     (p->trapframe && va >= stack_limit && va < PGROUNDUP(p->trapframe->sp))) {
    800021ce:	00f9f463          	bgeu	s3,a5,800021d6 <allocate_zero_page+0x68>
    perm |= PTE_W; // Heap and stack are writable
    800021d2:	47d9                	li	a5,22
    800021d4:	86be                	mv	a3,a5
  printf("[pid %d] ALLOCATE_ZERO_PAGE: va=0x%lx perm=0x%x (heap: 0x%lx-0x%lx, stack: one page below SP)\n", 
    800021d6:	64bc                	ld	a5,72(s1)
    800021d8:	8a36                	mv	s4,a3
    800021da:	864e                	mv	a2,s3
    800021dc:	588c                	lw	a1,48(s1)
    800021de:	00007517          	auipc	a0,0x7
    800021e2:	49250513          	addi	a0,a0,1170 # 80009670 <etext+0x670>
    800021e6:	b14fe0ef          	jal	800004fa <printf>
  if(mappages(pagetable, va, PGSIZE, (uint64)mem, perm) != 0) {
    800021ea:	8aca                	mv	s5,s2
    800021ec:	8752                	mv	a4,s4
    800021ee:	86ca                	mv	a3,s2
    800021f0:	6605                	lui	a2,0x1
    800021f2:	85ce                	mv	a1,s3
    800021f4:	855a                	mv	a0,s6
    800021f6:	e6ffe0ef          	jal	80001064 <mappages>
    800021fa:	e925                	bnez	a0,8000226a <allocate_zero_page+0xfc>
  printf("[pid %d] ALLOC va=0x%lx\n", p->pid, va);
    800021fc:	864e                	mv	a2,s3
    800021fe:	588c                	lw	a1,48(s1)
    80002200:	00007517          	auipc	a0,0x7
    80002204:	4d050513          	addi	a0,a0,1232 # 800096d0 <etext+0x6d0>
    80002208:	af2fe0ef          	jal	800004fa <printf>
  add_resident_page(va, is_write); // Mark dirty if it's a write access
    8000220c:	85de                	mv	a1,s7
    8000220e:	854e                	mv	a0,s3
    80002210:	e23ff0ef          	jal	80002032 <add_resident_page>
  return (uint64)mem;
    80002214:	7a02                	ld	s4,32(sp)
}
    80002216:	8556                	mv	a0,s5
    80002218:	60a6                	ld	ra,72(sp)
    8000221a:	6406                	ld	s0,64(sp)
    8000221c:	74e2                	ld	s1,56(sp)
    8000221e:	7942                	ld	s2,48(sp)
    80002220:	79a2                	ld	s3,40(sp)
    80002222:	6ae2                	ld	s5,24(sp)
    80002224:	6b42                	ld	s6,16(sp)
    80002226:	6ba2                	ld	s7,8(sp)
    80002228:	6161                	addi	sp,sp,80
    8000222a:	8082                	ret
    if(!p->memfull_logged) {
    8000222c:	67ad                	lui	a5,0xb
    8000222e:	97a6                	add	a5,a5,s1
    80002230:	ca87a783          	lw	a5,-856(a5) # aca8 <_entry-0x7fff5358>
    80002234:	cb99                	beqz	a5,8000224a <allocate_zero_page+0xdc>
    if(evict_page_adaptive() == 0) {
    80002236:	dd5ff0ef          	jal	8000200a <evict_page_adaptive>
      return 0;
    8000223a:	4a81                	li	s5,0
    if(evict_page_adaptive() == 0) {
    8000223c:	dd69                	beqz	a0,80002216 <allocate_zero_page+0xa8>
    mem = kalloc();
    8000223e:	90bfe0ef          	jal	80000b48 <kalloc>
    80002242:	892a                	mv	s2,a0
    if(mem == 0) {
    80002244:	f929                	bnez	a0,80002196 <allocate_zero_page+0x28>
      return 0;
    80002246:	4a81                	li	s5,0
    80002248:	b7f9                	j	80002216 <allocate_zero_page+0xa8>
      printf("[pid %d] MEMFULL\n", p->pid);
    8000224a:	588c                	lw	a1,48(s1)
    8000224c:	00007517          	auipc	a0,0x7
    80002250:	40c50513          	addi	a0,a0,1036 # 80009658 <etext+0x658>
    80002254:	aa6fe0ef          	jal	800004fa <printf>
      p->memfull_logged = 1;  // Only log once per process
    80002258:	67ad                	lui	a5,0xb
    8000225a:	97a6                	add	a5,a5,s1
    8000225c:	4705                	li	a4,1
    8000225e:	cae7a423          	sw	a4,-856(a5) # aca8 <_entry-0x7fff5358>
    80002262:	bfd1                	j	80002236 <allocate_zero_page+0xc8>
  int perm = PTE_R | PTE_U;
    80002264:	47c9                	li	a5,18
    80002266:	86be                	mv	a3,a5
    80002268:	b7bd                	j	800021d6 <allocate_zero_page+0x68>
    kfree(mem);
    8000226a:	854a                	mv	a0,s2
    8000226c:	ff0fe0ef          	jal	80000a5c <kfree>
    return 0;
    80002270:	4a81                	li	s5,0
    80002272:	7a02                	ld	s4,32(sp)
    80002274:	b74d                	j	80002216 <allocate_zero_page+0xa8>
  if((va >= p->heap_start && va < p->sz) || 
    80002276:	1884b703          	ld	a4,392(s1)
  int perm = PTE_R | PTE_U;
    8000227a:	47c9                	li	a5,18
    8000227c:	86be                	mv	a3,a5
  if((va >= p->heap_start && va < p->sz) || 
    8000227e:	f4e9ece3          	bltu	s3,a4,800021d6 <allocate_zero_page+0x68>
    80002282:	64bc                	ld	a5,72(s1)
    80002284:	f4f9e7e3          	bltu	s3,a5,800021d2 <allocate_zero_page+0x64>
    80002288:	b7b9                	j	800021d6 <allocate_zero_page+0x68>

000000008000228a <load_executable_page>:
{
    8000228a:	715d                	addi	sp,sp,-80
    8000228c:	e486                	sd	ra,72(sp)
    8000228e:	e0a2                	sd	s0,64(sp)
    80002290:	fc26                	sd	s1,56(sp)
    80002292:	f84a                	sd	s2,48(sp)
    80002294:	f44e                	sd	s3,40(sp)
    80002296:	f052                	sd	s4,32(sp)
    80002298:	e85a                	sd	s6,16(sp)
    8000229a:	e45e                	sd	s7,8(sp)
    8000229c:	0880                	addi	s0,sp,80
    8000229e:	8b2a                	mv	s6,a0
    800022a0:	89ae                	mv	s3,a1
    800022a2:	8bb2                	mv	s7,a2
  struct proc *p = myproc();
    800022a4:	3a1000ef          	jal	80002e44 <myproc>
    800022a8:	84aa                	mv	s1,a0
  if(va >= p->text_start && va < p->text_end) {
    800022aa:	16853783          	ld	a5,360(a0)
    800022ae:	00f9ec63          	bltu	s3,a5,800022c6 <load_executable_page+0x3c>
    800022b2:	17053783          	ld	a5,368(a0)
    800022b6:	00f9f863          	bgeu	s3,a5,800022c6 <load_executable_page+0x3c>
    800022ba:	ec56                	sd	s5,24(sp)
    seg = &p->text_seg;
    800022bc:	692d                	lui	s2,0xb
    800022be:	c5890913          	addi	s2,s2,-936 # ac58 <_entry-0x7fff53a8>
    800022c2:	992a                	add	s2,s2,a0
  if(seg == 0) {
    800022c4:	a839                	j	800022e2 <load_executable_page+0x58>
  } else if(va >= p->data_start && va < p->data_end) {
    800022c6:	1784b783          	ld	a5,376(s1)
    return 0; // Invalid address
    800022ca:	4a01                	li	s4,0
  } else if(va >= p->data_start && va < p->data_end) {
    800022cc:	08f9ee63          	bltu	s3,a5,80002368 <load_executable_page+0xde>
    800022d0:	1804b783          	ld	a5,384(s1)
    800022d4:	08f9fa63          	bgeu	s3,a5,80002368 <load_executable_page+0xde>
    800022d8:	ec56                	sd	s5,24(sp)
    seg = &p->data_seg;
    800022da:	692d                	lui	s2,0xb
    800022dc:	c8090913          	addi	s2,s2,-896 # ac80 <_entry-0x7fff5380>
    800022e0:	9926                	add	s2,s2,s1
  mem = kalloc();
    800022e2:	867fe0ef          	jal	80000b48 <kalloc>
    800022e6:	8aaa                	mv	s5,a0
  if(mem == 0) {
    800022e8:	c959                	beqz	a0,8000237e <load_executable_page+0xf4>
  memset(mem, 0, PGSIZE);
    800022ea:	6605                	lui	a2,0x1
    800022ec:	4581                	li	a1,0
    800022ee:	8556                	mv	a0,s5
    800022f0:	a0dfe0ef          	jal	80000cfc <memset>
  uint64 seg_offset = va - seg->va_start;
    800022f4:	00093703          	ld	a4,0(s2)
    800022f8:	40e987b3          	sub	a5,s3,a4
  if(seg_offset < seg->file_size) {
    800022fc:	01893603          	ld	a2,24(s2)
    80002300:	02c7fb63          	bgeu	a5,a2,80002336 <load_executable_page+0xac>
  uint64 file_offset = seg->file_offset + seg_offset;
    80002304:	01093683          	ld	a3,16(s2)
    80002308:	96be                	add	a3,a3,a5
    if(seg_offset + PGSIZE > seg->file_size) {
    8000230a:	6585                	lui	a1,0x1
    8000230c:	97ae                	add	a5,a5,a1
    8000230e:	00f67663          	bgeu	a2,a5,8000231a <load_executable_page+0x90>
      read_size = seg->file_size - seg_offset;
    80002312:	9732                	add	a4,a4,a2
    80002314:	413707b3          	sub	a5,a4,s3
    80002318:	85be                	mv	a1,a5
    if(readi(p->exec_inode, 0, (uint64)mem, file_offset, read_size) != read_size) {
    8000231a:	67ad                	lui	a5,0xb
    8000231c:	97a6                	add	a5,a5,s1
    8000231e:	8a2e                	mv	s4,a1
    80002320:	0005871b          	sext.w	a4,a1
    80002324:	2681                	sext.w	a3,a3
    80002326:	8656                	mv	a2,s5
    80002328:	4581                	li	a1,0
    8000232a:	c507b503          	ld	a0,-944(a5) # ac50 <_entry-0x7fff53b0>
    8000232e:	4a9020ef          	jal	80004fd6 <readi>
    80002332:	09451563          	bne	a0,s4,800023bc <load_executable_page+0x132>
  if(mappages(pagetable, va, PGSIZE, (uint64)mem, seg->perm | PTE_R | PTE_U) != 0) {
    80002336:	86d6                	mv	a3,s5
    80002338:	8a56                	mv	s4,s5
    8000233a:	02092703          	lw	a4,32(s2)
    8000233e:	01276713          	ori	a4,a4,18
    80002342:	6605                	lui	a2,0x1
    80002344:	85ce                	mv	a1,s3
    80002346:	855a                	mv	a0,s6
    80002348:	d1dfe0ef          	jal	80001064 <mappages>
    8000234c:	ed35                	bnez	a0,800023c8 <load_executable_page+0x13e>
  printf("[pid %d] LOADEXEC va=0x%lx\n", p->pid, va);
    8000234e:	864e                	mv	a2,s3
    80002350:	588c                	lw	a1,48(s1)
    80002352:	00007517          	auipc	a0,0x7
    80002356:	39e50513          	addi	a0,a0,926 # 800096f0 <etext+0x6f0>
    8000235a:	9a0fe0ef          	jal	800004fa <printf>
  add_resident_page(va, is_write); // Mark dirty if it's a write access
    8000235e:	85de                	mv	a1,s7
    80002360:	854e                	mv	a0,s3
    80002362:	cd1ff0ef          	jal	80002032 <add_resident_page>
  return (uint64)mem;
    80002366:	6ae2                	ld	s5,24(sp)
}
    80002368:	8552                	mv	a0,s4
    8000236a:	60a6                	ld	ra,72(sp)
    8000236c:	6406                	ld	s0,64(sp)
    8000236e:	74e2                	ld	s1,56(sp)
    80002370:	7942                	ld	s2,48(sp)
    80002372:	79a2                	ld	s3,40(sp)
    80002374:	7a02                	ld	s4,32(sp)
    80002376:	6b42                	ld	s6,16(sp)
    80002378:	6ba2                	ld	s7,8(sp)
    8000237a:	6161                	addi	sp,sp,80
    8000237c:	8082                	ret
    if(!p->memfull_logged) {
    8000237e:	67ad                	lui	a5,0xb
    80002380:	97a6                	add	a5,a5,s1
    80002382:	ca87a783          	lw	a5,-856(a5) # aca8 <_entry-0x7fff5358>
    80002386:	c799                	beqz	a5,80002394 <load_executable_page+0x10a>
    if(evict_page_adaptive() == 0) {
    80002388:	c83ff0ef          	jal	8000200a <evict_page_adaptive>
      return 0;
    8000238c:	4a01                	li	s4,0
    if(evict_page_adaptive() == 0) {
    8000238e:	e105                	bnez	a0,800023ae <load_executable_page+0x124>
    80002390:	6ae2                	ld	s5,24(sp)
    80002392:	bfd9                	j	80002368 <load_executable_page+0xde>
      printf("[pid %d] MEMFULL\n", p->pid);
    80002394:	588c                	lw	a1,48(s1)
    80002396:	00007517          	auipc	a0,0x7
    8000239a:	2c250513          	addi	a0,a0,706 # 80009658 <etext+0x658>
    8000239e:	95cfe0ef          	jal	800004fa <printf>
      p->memfull_logged = 1;  // Only log once per process
    800023a2:	67ad                	lui	a5,0xb
    800023a4:	97a6                	add	a5,a5,s1
    800023a6:	4705                	li	a4,1
    800023a8:	cae7a423          	sw	a4,-856(a5) # aca8 <_entry-0x7fff5358>
    800023ac:	bff1                	j	80002388 <load_executable_page+0xfe>
    mem = kalloc();
    800023ae:	f9afe0ef          	jal	80000b48 <kalloc>
    800023b2:	8aaa                	mv	s5,a0
    if(mem == 0) {
    800023b4:	f91d                	bnez	a0,800022ea <load_executable_page+0x60>
      return 0;
    800023b6:	4a01                	li	s4,0
    800023b8:	6ae2                	ld	s5,24(sp)
    800023ba:	b77d                	j	80002368 <load_executable_page+0xde>
      kfree(mem);
    800023bc:	8556                	mv	a0,s5
    800023be:	e9efe0ef          	jal	80000a5c <kfree>
      return 0;
    800023c2:	4a01                	li	s4,0
    800023c4:	6ae2                	ld	s5,24(sp)
    800023c6:	b74d                	j	80002368 <load_executable_page+0xde>
    kfree(mem);
    800023c8:	8556                	mv	a0,s5
    800023ca:	e92fe0ef          	jal	80000a5c <kfree>
    return 0;
    800023ce:	4a01                	li	s4,0
    800023d0:	6ae2                	ld	s5,24(sp)
    800023d2:	bf59                	j	80002368 <load_executable_page+0xde>

00000000800023d4 <swap_in_page>:

//Read a page from swap
int
swap_in_page(uint64 va, char *mem, int *was_dirty)
{
    800023d4:	715d                	addi	sp,sp,-80
    800023d6:	e486                	sd	ra,72(sp)
    800023d8:	e0a2                	sd	s0,64(sp)
    800023da:	fc26                	sd	s1,56(sp)
    800023dc:	f84a                	sd	s2,48(sp)
    800023de:	f44e                	sd	s3,40(sp)
    800023e0:	f052                	sd	s4,32(sp)
    800023e2:	0880                	addi	s0,sp,80
    800023e4:	84aa                	mv	s1,a0
    800023e6:	89ae                	mv	s3,a1
    800023e8:	8a32                	mv	s4,a2
  struct proc *p = myproc();
    800023ea:	25b000ef          	jal	80002e44 <myproc>
    800023ee:	892a                	mv	s2,a0
  
  //Find the swapped page
  int slot = -1;
  *was_dirty = 0; //Default to clean
    800023f0:	000a2023          	sw	zero,0(s4) # 1000 <_entry-0x7ffff000>
  for(int i = 0; i < MAX_SWAP_PAGES; i++) 
    800023f4:	7ff50793          	addi	a5,a0,2047
    800023f8:	44978793          	addi	a5,a5,1097
    800023fc:	4701                	li	a4,0
    800023fe:	40000813          	li	a6,1024
    80002402:	a031                	j	8000240e <swap_in_page+0x3a>
    80002404:	2705                	addiw	a4,a4,1
    80002406:	02878793          	addi	a5,a5,40
    8000240a:	0f070563          	beq	a4,a6,800024f4 <swap_in_page+0x120>
  {
    if(p->swapped_pages[i].in_use && p->swapped_pages[i].va == va) 
    8000240e:	4bd4                	lw	a3,20(a5)
    80002410:	daf5                	beqz	a3,80002404 <swap_in_page+0x30>
    80002412:	6394                	ld	a3,0(a5)
    80002414:	fe9698e3          	bne	a3,s1,80002404 <swap_in_page+0x30>
    80002418:	ec56                	sd	s5,24(sp)
    {
      slot = p->swapped_pages[i].swap_slot;
    8000241a:	00271793          	slli	a5,a4,0x2
    8000241e:	00e786b3          	add	a3,a5,a4
    80002422:	068e                	slli	a3,a3,0x3
    80002424:	96ca                	add	a3,a3,s2
    80002426:	6605                	lui	a2,0x1
    80002428:	96b2                	add	a3,a3,a2
    8000242a:	c586aa83          	lw	s5,-936(a3)
      *was_dirty = p->swapped_pages[i].is_dirty; //Restore dirty status
    8000242e:	c546a683          	lw	a3,-940(a3)
    80002432:	00da2023          	sw	a3,0(s4)
      //Remove from swapped pages list
      p->swapped_pages[i].in_use = 0;
    80002436:	97ba                	add	a5,a5,a4
    80002438:	078e                	slli	a5,a5,0x3
    8000243a:	97ca                	add	a5,a5,s2
    8000243c:	963e                	add	a2,a2,a5
    8000243e:	c4062e23          	sw	zero,-932(a2) # c5c <_entry-0x7ffff3a4>
      p->num_swapped_pages--;
    80002442:	67ad                	lui	a5,0xb
    80002444:	97ca                	add	a5,a5,s2
    80002446:	c487a703          	lw	a4,-952(a5) # ac48 <_entry-0x7fff53b8>
    8000244a:	377d                	addiw	a4,a4,-1
    8000244c:	c4e7a423          	sw	a4,-952(a5)
      break;
    }
  }
  
  if(slot < 0) 
    80002450:	0e0ac763          	bltz	s5,8000253e <swap_in_page+0x16a>
  {
    return -1; // Page not found in swap
  }
  
  // Check if swap file is valid
  if(p->swapfile == 0) {
    80002454:	7ff90793          	addi	a5,s2,2047
    80002458:	3a97b783          	ld	a5,937(a5)
    8000245c:	cfd1                	beqz	a5,800024f8 <swap_in_page+0x124>
    printf("[pid %d] SWAPIN_ERROR: no swap file\n", p->pid);
    return -1;
  }
  
  // Read page from swap file
  begin_op();
    8000245e:	1f2030ef          	jal	80005650 <begin_op>
  
  // Double-check swap file is still valid after begin_op
  if(p->swapfile == 0) {
    80002462:	7ff90793          	addi	a5,s2,2047
    80002466:	3a97b503          	ld	a0,937(a5)
    8000246a:	c155                	beqz	a0,8000250e <swap_in_page+0x13a>
    printf("[pid %d] SWAPIN_ERROR: swap file disappeared\n", p->pid);
    end_op();
    return -1;
  }
  
  ilock(p->swapfile);
    8000246c:	7d8020ef          	jal	80004c44 <ilock>
  
  uint64 offset = slot * PGSIZE;
  if(readi(p->swapfile, 0, (uint64)mem, offset, PGSIZE) != PGSIZE) 
    80002470:	6a05                	lui	s4,0x1
    80002472:	014907b3          	add	a5,s2,s4
    80002476:	8752                	mv	a4,s4
    80002478:	00ca969b          	slliw	a3,s5,0xc
    8000247c:	864e                	mv	a2,s3
    8000247e:	4581                	li	a1,0
    80002480:	ba87b503          	ld	a0,-1112(a5)
    80002484:	353020ef          	jal	80004fd6 <readi>
    80002488:	0b451063          	bne	a0,s4,80002528 <swap_in_page+0x154>
    iunlock(p->swapfile);
    end_op();
    return -1;
  }
  
  iunlock(p->swapfile);
    8000248c:	7ff90793          	addi	a5,s2,2047
    80002490:	3a97b503          	ld	a0,937(a5)
    80002494:	05f020ef          	jal	80004cf2 <iunlock>
  end_op();
    80002498:	228030ef          	jal	800056c0 <end_op>
  
  // Debug: Log first integer value of read data
  int *intdata = (int*)mem;
  printf("[pid %d] SWAPIN_DATA va=0x%lx slot=%d first_int=%d (bytes=%d,%d,%d,%d)\n", 
    8000249c:	03092583          	lw	a1,48(s2)
    800024a0:	0039c783          	lbu	a5,3(s3)
    800024a4:	e03e                	sd	a5,0(sp)
    800024a6:	0029c883          	lbu	a7,2(s3)
    800024aa:	0019c803          	lbu	a6,1(s3)
    800024ae:	0009c783          	lbu	a5,0(s3)
    800024b2:	0009a703          	lw	a4,0(s3)
    800024b6:	86d6                	mv	a3,s5
    800024b8:	8626                	mv	a2,s1
    800024ba:	00007517          	auipc	a0,0x7
    800024be:	2ae50513          	addi	a0,a0,686 # 80009768 <etext+0x768>
    800024c2:	838fe0ef          	jal	800004fa <printf>
         p->pid, va, slot, *intdata,
         ((char*)mem)[0] & 0xFF, ((char*)mem)[1] & 0xFF, 
         ((char*)mem)[2] & 0xFF, ((char*)mem)[3] & 0xFF);
  
  // Free the swap slot since page is now in memory
  free_swap_slot(slot);
    800024c6:	8556                	mv	a0,s5
    800024c8:	d78ff0ef          	jal	80001a40 <free_swap_slot>
  
  printf("[pid %d] SWAPIN va=0x%lx slot=%d\n", p->pid, va, slot);
    800024cc:	86d6                	mv	a3,s5
    800024ce:	8626                	mv	a2,s1
    800024d0:	03092583          	lw	a1,48(s2)
    800024d4:	00007517          	auipc	a0,0x7
    800024d8:	2dc50513          	addi	a0,a0,732 # 800097b0 <etext+0x7b0>
    800024dc:	81efe0ef          	jal	800004fa <printf>
  return 0;
    800024e0:	4501                	li	a0,0
    800024e2:	6ae2                	ld	s5,24(sp)
}
    800024e4:	60a6                	ld	ra,72(sp)
    800024e6:	6406                	ld	s0,64(sp)
    800024e8:	74e2                	ld	s1,56(sp)
    800024ea:	7942                	ld	s2,48(sp)
    800024ec:	79a2                	ld	s3,40(sp)
    800024ee:	7a02                	ld	s4,32(sp)
    800024f0:	6161                	addi	sp,sp,80
    800024f2:	8082                	ret
    return -1; // Page not found in swap
    800024f4:	557d                	li	a0,-1
    800024f6:	b7fd                	j	800024e4 <swap_in_page+0x110>
    printf("[pid %d] SWAPIN_ERROR: no swap file\n", p->pid);
    800024f8:	03092583          	lw	a1,48(s2)
    800024fc:	00007517          	auipc	a0,0x7
    80002500:	21450513          	addi	a0,a0,532 # 80009710 <etext+0x710>
    80002504:	ff7fd0ef          	jal	800004fa <printf>
    return -1;
    80002508:	557d                	li	a0,-1
    8000250a:	6ae2                	ld	s5,24(sp)
    8000250c:	bfe1                	j	800024e4 <swap_in_page+0x110>
    printf("[pid %d] SWAPIN_ERROR: swap file disappeared\n", p->pid);
    8000250e:	03092583          	lw	a1,48(s2)
    80002512:	00007517          	auipc	a0,0x7
    80002516:	22650513          	addi	a0,a0,550 # 80009738 <etext+0x738>
    8000251a:	fe1fd0ef          	jal	800004fa <printf>
    end_op();
    8000251e:	1a2030ef          	jal	800056c0 <end_op>
    return -1;
    80002522:	557d                	li	a0,-1
    80002524:	6ae2                	ld	s5,24(sp)
    80002526:	bf7d                	j	800024e4 <swap_in_page+0x110>
    iunlock(p->swapfile);
    80002528:	7ff90913          	addi	s2,s2,2047
    8000252c:	3a993503          	ld	a0,937(s2)
    80002530:	7c2020ef          	jal	80004cf2 <iunlock>
    end_op();
    80002534:	18c030ef          	jal	800056c0 <end_op>
    return -1;
    80002538:	557d                	li	a0,-1
    8000253a:	6ae2                	ld	s5,24(sp)
    8000253c:	b765                	j	800024e4 <swap_in_page+0x110>
    return -1; // Page not found in swap
    8000253e:	557d                	li	a0,-1
    80002540:	6ae2                	ld	s5,24(sp)
    80002542:	b74d                	j	800024e4 <swap_in_page+0x110>

0000000080002544 <is_swapped>:

// Check if a page is swapped
int
is_swapped(uint64 va)
{
    80002544:	1101                	addi	sp,sp,-32
    80002546:	ec06                	sd	ra,24(sp)
    80002548:	e822                	sd	s0,16(sp)
    8000254a:	e426                	sd	s1,8(sp)
    8000254c:	1000                	addi	s0,sp,32
    8000254e:	84aa                	mv	s1,a0
  struct proc *p = myproc();
    80002550:	0f5000ef          	jal	80002e44 <myproc>
  
  for(int i = 0; i < MAX_SWAP_PAGES; i++) {
    80002554:	7ff50793          	addi	a5,a0,2047
    80002558:	44978793          	addi	a5,a5,1097
    8000255c:	672d                	lui	a4,0xb
    8000255e:	c4870713          	addi	a4,a4,-952 # ac48 <_entry-0x7fff53b8>
    80002562:	00e506b3          	add	a3,a0,a4
    80002566:	a029                	j	80002570 <is_swapped+0x2c>
    80002568:	02878793          	addi	a5,a5,40
    8000256c:	00d78d63          	beq	a5,a3,80002586 <is_swapped+0x42>
    if(p->swapped_pages[i].in_use && p->swapped_pages[i].va == va) {
    80002570:	4bd8                	lw	a4,20(a5)
    80002572:	db7d                	beqz	a4,80002568 <is_swapped+0x24>
    80002574:	6398                	ld	a4,0(a5)
    80002576:	fe9719e3          	bne	a4,s1,80002568 <is_swapped+0x24>
      return 1;
    8000257a:	4505                	li	a0,1
    }
  }
  return 0;
}
    8000257c:	60e2                	ld	ra,24(sp)
    8000257e:	6442                	ld	s0,16(sp)
    80002580:	64a2                	ld	s1,8(sp)
    80002582:	6105                	addi	sp,sp,32
    80002584:	8082                	ret
  return 0;
    80002586:	4501                	li	a0,0
    80002588:	bfd5                	j	8000257c <is_swapped+0x38>

000000008000258a <vmfault>:
{
    8000258a:	715d                	addi	sp,sp,-80
    8000258c:	e486                	sd	ra,72(sp)
    8000258e:	e0a2                	sd	s0,64(sp)
    80002590:	fc26                	sd	s1,56(sp)
    80002592:	f84a                	sd	s2,48(sp)
    80002594:	f44e                	sd	s3,40(sp)
    80002596:	f052                	sd	s4,32(sp)
    80002598:	ec56                	sd	s5,24(sp)
    8000259a:	0880                	addi	s0,sp,80
    8000259c:	8aaa                	mv	s5,a0
    8000259e:	892e                	mv	s2,a1
    800025a0:	8a32                	mv	s4,a2
  struct proc *p = myproc();
    800025a2:	0a3000ef          	jal	80002e44 <myproc>
    800025a6:	84aa                	mv	s1,a0
  p->page_fault_count++;
    800025a8:	6705                	lui	a4,0x1
    800025aa:	972a                	add	a4,a4,a0
    800025ac:	ba472783          	lw	a5,-1116(a4) # ba4 <_entry-0x7ffff45c>
    800025b0:	0017861b          	addiw	a2,a5,1
    800025b4:	85b2                	mv	a1,a2
    800025b6:	bac72223          	sw	a2,-1116(a4)
  int fault_limit = (p->sz == 0) ? 20 : 1000;
    800025ba:	6534                	ld	a3,72(a0)
    800025bc:	3e800793          	li	a5,1000
    800025c0:	e291                	bnez	a3,800025c4 <vmfault+0x3a>
    800025c2:	47d1                	li	a5,20
  if(p->page_fault_count > fault_limit) {
    800025c4:	08b7c763          	blt	a5,a1,80002652 <vmfault+0xc8>
  if(va >= MAXVA) {
    800025c8:	57fd                	li	a5,-1
    800025ca:	83e9                	srli	a5,a5,0x1a
    800025cc:	0927ef63          	bltu	a5,s2,8000266a <vmfault+0xe0>
    800025d0:	e85a                	sd	s6,16(sp)
  uint64 page_va = PGROUNDDOWN(va);
    800025d2:	77fd                	lui	a5,0xfffff
    800025d4:	00f97933          	and	s2,s2,a5
    access_type = "read"; 
    800025d8:	00007797          	auipc	a5,0x7
    800025dc:	6f078793          	addi	a5,a5,1776 # 80009cc8 <etext+0xcc8>
    800025e0:	8b3e                	mv	s6,a5
  if(is_write) {
    800025e2:	000a0763          	beqz	s4,800025f0 <vmfault+0x66>
    access_type = "write";
    800025e6:	00007797          	auipc	a5,0x7
    800025ea:	1f278793          	addi	a5,a5,498 # 800097d8 <etext+0x7d8>
    800025ee:	8b3e                	mv	s6,a5
  if(ismapped(pagetable, page_va)) {
    800025f0:	85ca                	mv	a1,s2
    800025f2:	8556                	mv	a0,s5
    800025f4:	9daff0ef          	jal	800017ce <ismapped>
    return 0; // Already mapped, not a valid fault
    800025f8:	4981                	li	s3,0
  if(ismapped(pagetable, page_va)) {
    800025fa:	28051163          	bnez	a0,8000287c <vmfault+0x2f2>
  if(page_va >= p->text_start && page_va < p->text_end) {
    800025fe:	1684b783          	ld	a5,360(s1)
    80002602:	00f96663          	bltu	s2,a5,8000260e <vmfault+0x84>
    80002606:	1704b783          	ld	a5,368(s1)
    8000260a:	1cf96563          	bltu	s2,a5,800027d4 <vmfault+0x24a>
  else if(page_va >= p->data_start && page_va < p->data_end) {
    8000260e:	1784b783          	ld	a5,376(s1)
    80002612:	00f96663          	bltu	s2,a5,8000261e <vmfault+0x94>
    80002616:	1804b783          	ld	a5,384(s1)
    8000261a:	1af96d63          	bltu	s2,a5,800027d4 <vmfault+0x24a>
  else if(p->trapframe && page_va >= PGROUNDDOWN(p->trapframe->sp) - PGSIZE && 
    8000261e:	6cbc                	ld	a5,88(s1)
    80002620:	c7c9                	beqz	a5,800026aa <vmfault+0x120>
    80002622:	7b98                	ld	a4,48(a5)
    80002624:	77fd                	lui	a5,0xfffff
    80002626:	00f776b3          	and	a3,a4,a5
    8000262a:	97b6                	add	a5,a5,a3
    8000262c:	06f96f63          	bltu	s2,a5,800026aa <vmfault+0x120>
          page_va < PGROUNDUP(p->trapframe->sp)) {
    80002630:	6785                	lui	a5,0x1
    80002632:	17fd                	addi	a5,a5,-1 # fff <_entry-0x7ffff001>
    80002634:	973e                	add	a4,a4,a5
    80002636:	77fd                	lui	a5,0xfffff
    80002638:	8f7d                	and	a4,a4,a5
  else if(p->trapframe && page_va >= PGROUNDDOWN(p->trapframe->sp) - PGSIZE && 
    8000263a:	06e97863          	bgeu	s2,a4,800026aa <vmfault+0x120>
    if(page_va < sp_page && page_va < p->sz) {
    8000263e:	20d97463          	bgeu	s2,a3,80002846 <vmfault+0x2bc>
    80002642:	64bc                	ld	a5,72(s1)
      cause = "stack";
    80002644:	00007717          	auipc	a4,0x7
    80002648:	1a470713          	addi	a4,a4,420 # 800097e8 <etext+0x7e8>
    if(page_va < sp_page && page_va < p->sz) {
    8000264c:	20f97163          	bgeu	s2,a5,8000284e <vmfault+0x2c4>
    80002650:	a0ad                	j	800026ba <vmfault+0x130>
    printf("[pid %d] KILL excessive page faults (count=%d, sz=0x%lx)\n", 
    80002652:	588c                	lw	a1,48(s1)
    80002654:	00007517          	auipc	a0,0x7
    80002658:	19c50513          	addi	a0,a0,412 # 800097f0 <etext+0x7f0>
    8000265c:	e9ffd0ef          	jal	800004fa <printf>
    setkilled(p);
    80002660:	8526                	mv	a0,s1
    80002662:	208010ef          	jal	8000386a <setkilled>
    return 0;
    80002666:	4981                	li	s3,0
    80002668:	a03d                	j	80002696 <vmfault+0x10c>
    printf("[pid %d] KILL invalid-access va=0x%lx access=%s\n", 
    8000266a:	588c                	lw	a1,48(s1)
    8000266c:	00007697          	auipc	a3,0x7
    80002670:	65c68693          	addi	a3,a3,1628 # 80009cc8 <etext+0xcc8>
    80002674:	000a0663          	beqz	s4,80002680 <vmfault+0xf6>
    80002678:	00007697          	auipc	a3,0x7
    8000267c:	16068693          	addi	a3,a3,352 # 800097d8 <etext+0x7d8>
    80002680:	864a                	mv	a2,s2
    80002682:	00007517          	auipc	a0,0x7
    80002686:	1ae50513          	addi	a0,a0,430 # 80009830 <etext+0x830>
    8000268a:	e71fd0ef          	jal	800004fa <printf>
    setkilled(p);
    8000268e:	8526                	mv	a0,s1
    80002690:	1da010ef          	jal	8000386a <setkilled>
    return 0;
    80002694:	4981                	li	s3,0
}
    80002696:	854e                	mv	a0,s3
    80002698:	60a6                	ld	ra,72(sp)
    8000269a:	6406                	ld	s0,64(sp)
    8000269c:	74e2                	ld	s1,56(sp)
    8000269e:	7942                	ld	s2,48(sp)
    800026a0:	79a2                	ld	s3,40(sp)
    800026a2:	7a02                	ld	s4,32(sp)
    800026a4:	6ae2                	ld	s5,24(sp)
    800026a6:	6161                	addi	sp,sp,80
    800026a8:	8082                	ret
  else if(p->sz > 0 && page_va >= p->heap_start && page_va < p->sz) {
    800026aa:	64bc                	ld	a5,72(s1)
    800026ac:	c799                	beqz	a5,800026ba <vmfault+0x130>
    800026ae:	1884b703          	ld	a4,392(s1)
    800026b2:	00e96463          	bltu	s2,a4,800026ba <vmfault+0x130>
    800026b6:	04f96363          	bltu	s2,a5,800026fc <vmfault+0x172>
  printf("[pid %d] PAGEFAULT va=0x%lx access=%s cause=%s\n", 
    800026ba:	00007717          	auipc	a4,0x7
    800026be:	1ae70713          	addi	a4,a4,430 # 80009868 <etext+0x868>
    800026c2:	86da                	mv	a3,s6
    800026c4:	864a                	mv	a2,s2
    800026c6:	588c                	lw	a1,48(s1)
    800026c8:	00007517          	auipc	a0,0x7
    800026cc:	1a850513          	addi	a0,a0,424 # 80009870 <etext+0x870>
    800026d0:	e2bfd0ef          	jal	800004fa <printf>
  if(is_swapped(page_va)) 
    800026d4:	854a                	mv	a0,s2
    800026d6:	e6fff0ef          	jal	80002544 <is_swapped>
    800026da:	10051e63          	bnez	a0,800027f6 <vmfault+0x26c>
    printf("[pid %d] KILL invalid-access va=0x%lx access=%s\n",
    800026de:	86da                	mv	a3,s6
    800026e0:	864a                	mv	a2,s2
    800026e2:	588c                	lw	a1,48(s1)
    800026e4:	00007517          	auipc	a0,0x7
    800026e8:	14c50513          	addi	a0,a0,332 # 80009830 <etext+0x830>
    800026ec:	e0ffd0ef          	jal	800004fa <printf>
    setkilled(p);
    800026f0:	8526                	mv	a0,s1
    800026f2:	178010ef          	jal	8000386a <setkilled>
    return 0;
    800026f6:	4981                	li	s3,0
    800026f8:	6b42                	ld	s6,16(sp)
    800026fa:	bf71                	j	80002696 <vmfault+0x10c>
    if(p->sz == p->stack_top && page_va >= p->sz - 2*PGSIZE) {
    800026fc:	1904b683          	ld	a3,400(s1)
      cause = "heap";
    80002700:	00007717          	auipc	a4,0x7
    80002704:	0e070713          	addi	a4,a4,224 # 800097e0 <etext+0x7e0>
    if(p->sz == p->stack_top && page_va >= p->sz - 2*PGSIZE) {
    80002708:	14d79363          	bne	a5,a3,8000284e <vmfault+0x2c4>
    8000270c:	7779                	lui	a4,0xffffe
    8000270e:	97ba                	add	a5,a5,a4
      cause = "heap";
    80002710:	00007717          	auipc	a4,0x7
    80002714:	0d070713          	addi	a4,a4,208 # 800097e0 <etext+0x7e0>
    if(p->sz == p->stack_top && page_va >= p->sz - 2*PGSIZE) {
    80002718:	12f96b63          	bltu	s2,a5,8000284e <vmfault+0x2c4>
    8000271c:	bf79                	j	800026ba <vmfault+0x130>
      if(!p->memfull_logged) 
    8000271e:	67ad                	lui	a5,0xb
    80002720:	97a6                	add	a5,a5,s1
    80002722:	ca87a783          	lw	a5,-856(a5) # aca8 <_entry-0x7fff5358>
    80002726:	c799                	beqz	a5,80002734 <vmfault+0x1aa>
      if(evict_page_adaptive() == 0)
    80002728:	8e3ff0ef          	jal	8000200a <evict_page_adaptive>
        return 0; // Could not evict
    8000272c:	4981                	li	s3,0
      if(evict_page_adaptive() == 0)
    8000272e:	e105                	bnez	a0,8000274e <vmfault+0x1c4>
    80002730:	6b42                	ld	s6,16(sp)
    80002732:	b795                	j	80002696 <vmfault+0x10c>
        printf("[pid %d] MEMFULL\n", p->pid);
    80002734:	588c                	lw	a1,48(s1)
    80002736:	00007517          	auipc	a0,0x7
    8000273a:	f2250513          	addi	a0,a0,-222 # 80009658 <etext+0x658>
    8000273e:	dbdfd0ef          	jal	800004fa <printf>
        p->memfull_logged = 1;
    80002742:	67ad                	lui	a5,0xb
    80002744:	97a6                	add	a5,a5,s1
    80002746:	4705                	li	a4,1
    80002748:	cae7a423          	sw	a4,-856(a5) # aca8 <_entry-0x7fff5358>
    8000274c:	bff1                	j	80002728 <vmfault+0x19e>
      mem = kalloc();
    8000274e:	bfafe0ef          	jal	80000b48 <kalloc>
    80002752:	89aa                	mv	s3,a0
      if(mem == 0) 
    80002754:	e555                	bnez	a0,80002800 <vmfault+0x276>
        return 0;
    80002756:	4981                	li	s3,0
    80002758:	6b42                	ld	s6,16(sp)
    8000275a:	bf35                	j	80002696 <vmfault+0x10c>
      kfree(mem);
    8000275c:	854e                	mv	a0,s3
    8000275e:	afefe0ef          	jal	80000a5c <kfree>
      return 0;
    80002762:	4981                	li	s3,0
    80002764:	6b42                	ld	s6,16(sp)
    80002766:	bf05                	j	80002696 <vmfault+0x10c>
    int perm = PTE_R | PTE_U;
    80002768:	4749                	li	a4,18
    if(page_va >= p->text_start && page_va < p->text_end) {
    8000276a:	1684b783          	ld	a5,360(s1)
    8000276e:	00f96863          	bltu	s2,a5,8000277e <vmfault+0x1f4>
    80002772:	1704b783          	ld	a5,368(s1)
    80002776:	00f97463          	bgeu	s2,a5,8000277e <vmfault+0x1f4>
      perm |= PTE_X; // Text is executable
    8000277a:	00876713          	ori	a4,a4,8
    if(mappages(pagetable, page_va, PGSIZE, (uint64)mem, perm) != 0) {
    8000277e:	86ce                	mv	a3,s3
    80002780:	6605                	lui	a2,0x1
    80002782:	85ca                	mv	a1,s2
    80002784:	8556                	mv	a0,s5
    80002786:	8dffe0ef          	jal	80001064 <mappages>
    8000278a:	c519                	beqz	a0,80002798 <vmfault+0x20e>
      kfree(mem);
    8000278c:	854e                	mv	a0,s3
    8000278e:	acefe0ef          	jal	80000a5c <kfree>
      return 0;
    80002792:	4981                	li	s3,0
    80002794:	6b42                	ld	s6,16(sp)
    80002796:	b701                	j	80002696 <vmfault+0x10c>
    int final_dirty = was_dirty || is_write; // Dirty if was dirty OR current write
    80002798:	fbc42583          	lw	a1,-68(s0)
    8000279c:	00ba65b3          	or	a1,s4,a1
    add_resident_page(page_va, final_dirty);
    800027a0:	00b035b3          	snez	a1,a1
    800027a4:	854a                	mv	a0,s2
    800027a6:	88dff0ef          	jal	80002032 <add_resident_page>
    return (uint64)mem;
    800027aa:	6b42                	ld	s6,16(sp)
    800027ac:	b5ed                	j	80002696 <vmfault+0x10c>
    mem = load_executable_page(pagetable, page_va, is_write);
    800027ae:	8652                	mv	a2,s4
    800027b0:	85ca                	mv	a1,s2
    800027b2:	8556                	mv	a0,s5
    800027b4:	ad7ff0ef          	jal	8000228a <load_executable_page>
    800027b8:	89aa                	mv	s3,a0
    800027ba:	a86d                	j	80002874 <vmfault+0x2ea>
    update_page_access(page_va);
    800027bc:	854a                	mv	a0,s2
    800027be:	f9dfe0ef          	jal	8000175a <update_page_access>
    800027c2:	6b42                	ld	s6,16(sp)
    800027c4:	bdc9                	j	80002696 <vmfault+0x10c>
    if((page_va >= p->heap_start && page_va < p->sz) || 
    800027c6:	1884b783          	ld	a5,392(s1)
    int perm = PTE_R | PTE_U;
    800027ca:	4749                	li	a4,18
    if((page_va >= p->heap_start && page_va < p->sz) || 
    800027cc:	f8f96fe3          	bltu	s2,a5,8000276a <vmfault+0x1e0>
    uint64 stack_limit = p->trapframe ? PGROUNDDOWN(p->trapframe->sp) - PGSIZE : 0;
    800027d0:	4781                	li	a5,0
    800027d2:	a881                	j	80002822 <vmfault+0x298>
  printf("[pid %d] PAGEFAULT va=0x%lx access=%s cause=%s\n", 
    800027d4:	00007717          	auipc	a4,0x7
    800027d8:	0cc70713          	addi	a4,a4,204 # 800098a0 <etext+0x8a0>
    800027dc:	86da                	mv	a3,s6
    800027de:	864a                	mv	a2,s2
    800027e0:	588c                	lw	a1,48(s1)
    800027e2:	00007517          	auipc	a0,0x7
    800027e6:	08e50513          	addi	a0,a0,142 # 80009870 <etext+0x870>
    800027ea:	d11fd0ef          	jal	800004fa <printf>
  if(is_swapped(page_va)) 
    800027ee:	854a                	mv	a0,s2
    800027f0:	d55ff0ef          	jal	80002544 <is_swapped>
    800027f4:	dd4d                	beqz	a0,800027ae <vmfault+0x224>
    char *mem = kalloc();
    800027f6:	b52fe0ef          	jal	80000b48 <kalloc>
    800027fa:	89aa                	mv	s3,a0
    if(mem == 0) {
    800027fc:	f20501e3          	beqz	a0,8000271e <vmfault+0x194>
    if(swap_in_page(page_va, mem, &was_dirty) != 0) {
    80002800:	fbc40613          	addi	a2,s0,-68
    80002804:	85ce                	mv	a1,s3
    80002806:	854a                	mv	a0,s2
    80002808:	bcdff0ef          	jal	800023d4 <swap_in_page>
    8000280c:	f921                	bnez	a0,8000275c <vmfault+0x1d2>
    uint64 stack_limit = p->trapframe ? PGROUNDDOWN(p->trapframe->sp) - PGSIZE : 0;
    8000280e:	6cb4                	ld	a3,88(s1)
    80002810:	dadd                	beqz	a3,800027c6 <vmfault+0x23c>
    80002812:	7a9c                	ld	a5,48(a3)
    80002814:	777d                	lui	a4,0xfffff
    80002816:	8ff9                	and	a5,a5,a4
    80002818:	97ba                	add	a5,a5,a4
    if((page_va >= p->heap_start && page_va < p->sz) || 
    8000281a:	1884b703          	ld	a4,392(s1)
    8000281e:	00e96663          	bltu	s2,a4,8000282a <vmfault+0x2a0>
    80002822:	64b0                	ld	a2,72(s1)
      perm |= PTE_W; // Heap and stack are writable
    80002824:	4759                	li	a4,22
    if((page_va >= p->heap_start && page_va < p->sz) || 
    80002826:	f4c962e3          	bltu	s2,a2,8000276a <vmfault+0x1e0>
       (p->trapframe && page_va >= stack_limit && page_va < PGROUNDUP(p->trapframe->sp))) {
    8000282a:	f2f96fe3          	bltu	s2,a5,80002768 <vmfault+0x1de>
    8000282e:	de8d                	beqz	a3,80002768 <vmfault+0x1de>
    80002830:	7a9c                	ld	a5,48(a3)
    80002832:	6705                	lui	a4,0x1
    80002834:	177d                	addi	a4,a4,-1 # fff <_entry-0x7ffff001>
    80002836:	97ba                	add	a5,a5,a4
    80002838:	777d                	lui	a4,0xfffff
    8000283a:	8ff9                	and	a5,a5,a4
      perm |= PTE_W; // Heap and stack are writable
    8000283c:	4759                	li	a4,22
       (p->trapframe && page_va >= stack_limit && page_va < PGROUNDUP(p->trapframe->sp))) {
    8000283e:	f2f966e3          	bltu	s2,a5,8000276a <vmfault+0x1e0>
    int perm = PTE_R | PTE_U;
    80002842:	4749                	li	a4,18
    80002844:	b71d                	j	8000276a <vmfault+0x1e0>
      cause = "stack";
    80002846:	00007717          	auipc	a4,0x7
    8000284a:	fa270713          	addi	a4,a4,-94 # 800097e8 <etext+0x7e8>
  printf("[pid %d] PAGEFAULT va=0x%lx access=%s cause=%s\n", 
    8000284e:	86da                	mv	a3,s6
    80002850:	864a                	mv	a2,s2
    80002852:	588c                	lw	a1,48(s1)
    80002854:	00007517          	auipc	a0,0x7
    80002858:	01c50513          	addi	a0,a0,28 # 80009870 <etext+0x870>
    8000285c:	c9ffd0ef          	jal	800004fa <printf>
  if(is_swapped(page_va)) 
    80002860:	854a                	mv	a0,s2
    80002862:	ce3ff0ef          	jal	80002544 <is_swapped>
    80002866:	f941                	bnez	a0,800027f6 <vmfault+0x26c>
    mem = allocate_zero_page(pagetable, page_va, is_write);
    80002868:	8652                	mv	a2,s4
    8000286a:	85ca                	mv	a1,s2
    8000286c:	8556                	mv	a0,s5
    8000286e:	901ff0ef          	jal	8000216e <allocate_zero_page>
    80002872:	89aa                	mv	s3,a0
  if(mem != 0) {
    80002874:	f40994e3          	bnez	s3,800027bc <vmfault+0x232>
    80002878:	6b42                	ld	s6,16(sp)
    8000287a:	bd31                	j	80002696 <vmfault+0x10c>
    8000287c:	6b42                	ld	s6,16(sp)
    8000287e:	bd21                	j	80002696 <vmfault+0x10c>

0000000080002880 <copyout>:
{
    80002880:	7159                	addi	sp,sp,-112
    80002882:	f486                	sd	ra,104(sp)
    80002884:	f0a2                	sd	s0,96(sp)
    80002886:	e0d2                	sd	s4,64(sp)
    80002888:	fc56                	sd	s5,56(sp)
    8000288a:	f45e                	sd	s7,40(sp)
    8000288c:	f062                	sd	s8,32(sp)
    8000288e:	1880                	addi	s0,sp,112
    80002890:	8c2a                	mv	s8,a0
    80002892:	8a2e                	mv	s4,a1
    80002894:	8bb2                	mv	s7,a2
    80002896:	8ab6                	mv	s5,a3
  struct proc *p = myproc();
    80002898:	5ac000ef          	jal	80002e44 <myproc>
  while(len > 0){
    8000289c:	0e0a8d63          	beqz	s5,80002996 <copyout+0x116>
    800028a0:	eca6                	sd	s1,88(sp)
    800028a2:	e8ca                	sd	s2,80(sp)
    800028a4:	e4ce                	sd	s3,72(sp)
    800028a6:	f85a                	sd	s6,48(sp)
    800028a8:	ec66                	sd	s9,24(sp)
    800028aa:	e86a                	sd	s10,16(sp)
    800028ac:	e46e                	sd	s11,8(sp)
    800028ae:	8b2a                	mv	s6,a0
    va0 = PGROUNDDOWN(dstva);
    800028b0:	7cfd                	lui	s9,0xfffff
    if(va0 >= 0x40000000UL) {
    800028b2:	40000db7          	lui	s11,0x40000
    n = PGSIZE - (dstva - va0);
    800028b6:	6d05                	lui	s10,0x1
    800028b8:	a8b1                	j	80002914 <copyout+0x94>
           is_swapped(va0)) {
    800028ba:	8526                	mv	a0,s1
    800028bc:	c89ff0ef          	jal	80002544 <is_swapped>
           (p->trapframe && va0 >= stack_limit && va0 < PGROUNDUP(p->trapframe->sp)) ||
    800028c0:	10050663          	beqz	a0,800029cc <copyout+0x14c>
      pa0 = vmfault(pagetable, va0, 1);  // vmfault returns physical address
    800028c4:	4605                	li	a2,1
    800028c6:	85a6                	mv	a1,s1
    800028c8:	8562                	mv	a0,s8
    800028ca:	cc1ff0ef          	jal	8000258a <vmfault>
    800028ce:	892a                	mv	s2,a0
      if(pa0 == 0) {
    800028d0:	10050763          	beqz	a0,800029de <copyout+0x15e>
    pte = walk(pagetable, va0, 0);
    800028d4:	4601                	li	a2,0
    800028d6:	85a6                	mv	a1,s1
    800028d8:	8562                	mv	a0,s8
    800028da:	eb6fe0ef          	jal	80000f90 <walk>
    if(pte == 0) {
    800028de:	10050963          	beqz	a0,800029f0 <copyout+0x170>
    if((*pte & PTE_W) == 0) {
    800028e2:	611c                	ld	a5,0(a0)
    800028e4:	8b91                	andi	a5,a5,4
    800028e6:	10078e63          	beqz	a5,80002a02 <copyout+0x182>
    n = PGSIZE - (dstva - va0);
    800028ea:	414489b3          	sub	s3,s1,s4
    800028ee:	99ea                	add	s3,s3,s10
    if(n > len)
    800028f0:	013af363          	bgeu	s5,s3,800028f6 <copyout+0x76>
    800028f4:	89d6                	mv	s3,s5
    memmove((void *)(pa0 + (dstva - va0)), src, n);
    800028f6:	409a0533          	sub	a0,s4,s1
    800028fa:	0009861b          	sext.w	a2,s3
    800028fe:	85de                	mv	a1,s7
    80002900:	954a                	add	a0,a0,s2
    80002902:	c5afe0ef          	jal	80000d5c <memmove>
    len -= n;
    80002906:	413a8ab3          	sub	s5,s5,s3
    src += n;
    8000290a:	9bce                	add	s7,s7,s3
    dstva = va0 + PGSIZE;
    8000290c:	01a48a33          	add	s4,s1,s10
  while(len > 0){
    80002910:	060a8a63          	beqz	s5,80002984 <copyout+0x104>
    va0 = PGROUNDDOWN(dstva);
    80002914:	019a74b3          	and	s1,s4,s9
    if(va0 >= 0x40000000UL) {
    80002918:	09b4f163          	bgeu	s1,s11,8000299a <copyout+0x11a>
    pa0 = walkaddr(pagetable, va0);
    8000291c:	85a6                	mv	a1,s1
    8000291e:	8562                	mv	a0,s8
    80002920:	f0afe0ef          	jal	8000102a <walkaddr>
    80002924:	892a                	mv	s2,a0
    if(pa0 == 0) {
    80002926:	f55d                	bnez	a0,800028d4 <copyout+0x54>
      if(p) {
    80002928:	080b0963          	beqz	s6,800029ba <copyout+0x13a>
        uint64 stack_limit = p->trapframe ? PGROUNDDOWN(p->trapframe->sp) - PGSIZE : 0;
    8000292c:	058b3783          	ld	a5,88(s6) # 1058 <_entry-0x7fffefa8>
    80002930:	c791                	beqz	a5,8000293c <copyout+0xbc>
    80002932:	0307b903          	ld	s2,48(a5)
    80002936:	01997933          	and	s2,s2,s9
    8000293a:	9966                	add	s2,s2,s9
        if((va0 >= p->text_start && va0 < p->text_end) ||
    8000293c:	168b3703          	ld	a4,360(s6)
    80002940:	00e4e663          	bltu	s1,a4,8000294c <copyout+0xcc>
    80002944:	170b3703          	ld	a4,368(s6)
    80002948:	f6e4eee3          	bltu	s1,a4,800028c4 <copyout+0x44>
    8000294c:	178b3703          	ld	a4,376(s6)
    80002950:	00e4e663          	bltu	s1,a4,8000295c <copyout+0xdc>
           (va0 >= p->data_start && va0 < p->data_end) ||
    80002954:	180b3703          	ld	a4,384(s6)
    80002958:	f6e4e6e3          	bltu	s1,a4,800028c4 <copyout+0x44>
    8000295c:	188b3703          	ld	a4,392(s6)
    80002960:	00e4e663          	bltu	s1,a4,8000296c <copyout+0xec>
           (va0 >= p->heap_start && va0 < p->sz) ||
    80002964:	048b3703          	ld	a4,72(s6)
    80002968:	f4e4eee3          	bltu	s1,a4,800028c4 <copyout+0x44>
           (p->trapframe && va0 >= stack_limit && va0 < PGROUNDUP(p->trapframe->sp)) ||
    8000296c:	f524e7e3          	bltu	s1,s2,800028ba <copyout+0x3a>
    80002970:	d7a9                	beqz	a5,800028ba <copyout+0x3a>
    80002972:	7b9c                	ld	a5,48(a5)
    80002974:	6705                	lui	a4,0x1
    80002976:	177d                	addi	a4,a4,-1 # fff <_entry-0x7ffff001>
    80002978:	97ba                	add	a5,a5,a4
    8000297a:	777d                	lui	a4,0xfffff
    8000297c:	8ff9                	and	a5,a5,a4
    8000297e:	f4f4e3e3          	bltu	s1,a5,800028c4 <copyout+0x44>
    80002982:	bf25                	j	800028ba <copyout+0x3a>
  return 0;
    80002984:	4501                	li	a0,0
    80002986:	64e6                	ld	s1,88(sp)
    80002988:	6946                	ld	s2,80(sp)
    8000298a:	69a6                	ld	s3,72(sp)
    8000298c:	7b42                	ld	s6,48(sp)
    8000298e:	6ce2                	ld	s9,24(sp)
    80002990:	6d42                	ld	s10,16(sp)
    80002992:	6da2                	ld	s11,8(sp)
    80002994:	a819                	j	800029aa <copyout+0x12a>
    80002996:	4501                	li	a0,0
    80002998:	a809                	j	800029aa <copyout+0x12a>
      return -1;
    8000299a:	557d                	li	a0,-1
    8000299c:	64e6                	ld	s1,88(sp)
    8000299e:	6946                	ld	s2,80(sp)
    800029a0:	69a6                	ld	s3,72(sp)
    800029a2:	7b42                	ld	s6,48(sp)
    800029a4:	6ce2                	ld	s9,24(sp)
    800029a6:	6d42                	ld	s10,16(sp)
    800029a8:	6da2                	ld	s11,8(sp)
}
    800029aa:	70a6                	ld	ra,104(sp)
    800029ac:	7406                	ld	s0,96(sp)
    800029ae:	6a06                	ld	s4,64(sp)
    800029b0:	7ae2                	ld	s5,56(sp)
    800029b2:	7ba2                	ld	s7,40(sp)
    800029b4:	7c02                	ld	s8,32(sp)
